ARM GAS  C:\Users\DCONNO~1\AppData\Local\Temp\ccJteUrE.s 			page 1


   1              		.cpu cortex-m4
   2              		.eabi_attribute 27, 1
   3              		.eabi_attribute 28, 1
   4              		.eabi_attribute 20, 1
   5              		.eabi_attribute 21, 1
   6              		.eabi_attribute 23, 3
   7              		.eabi_attribute 24, 1
   8              		.eabi_attribute 25, 1
   9              		.eabi_attribute 26, 1
  10              		.eabi_attribute 30, 1
  11              		.eabi_attribute 34, 1
  12              		.eabi_attribute 18, 4
  13              		.file	"stm32f4xx_hal_gpio.c"
  14              		.text
  15              	.Ltext0:
  16              		.cfi_sections	.debug_frame
  17              		.section	.text.HAL_GPIO_Init,"ax",%progbits
  18              		.align	1
  19              		.global	HAL_GPIO_Init
  20              		.arch armv7e-m
  21              		.syntax unified
  22              		.thumb
  23              		.thumb_func
  24              		.fpu fpv4-sp-d16
  26              	HAL_GPIO_Init:
  27              	.LVL0:
  28              	.LFB130:
  29              		.file 1 "Drivers/STM32F4xx_HAL_Driver/Src/stm32f4xx_hal_gpio.c"
   1:Drivers/STM32F4xx_HAL_Driver/Src/stm32f4xx_hal_gpio.c **** /**
   2:Drivers/STM32F4xx_HAL_Driver/Src/stm32f4xx_hal_gpio.c ****   ******************************************************************************
   3:Drivers/STM32F4xx_HAL_Driver/Src/stm32f4xx_hal_gpio.c ****   * @file    stm32f4xx_hal_gpio.c
   4:Drivers/STM32F4xx_HAL_Driver/Src/stm32f4xx_hal_gpio.c ****   * @author  MCD Application Team
   5:Drivers/STM32F4xx_HAL_Driver/Src/stm32f4xx_hal_gpio.c ****   * @brief   GPIO HAL module driver.
   6:Drivers/STM32F4xx_HAL_Driver/Src/stm32f4xx_hal_gpio.c ****   *          This file provides firmware functions to manage the following 
   7:Drivers/STM32F4xx_HAL_Driver/Src/stm32f4xx_hal_gpio.c ****   *          functionalities of the General Purpose Input/Output (GPIO) peripheral:
   8:Drivers/STM32F4xx_HAL_Driver/Src/stm32f4xx_hal_gpio.c ****   *           + Initialization and de-initialization functions
   9:Drivers/STM32F4xx_HAL_Driver/Src/stm32f4xx_hal_gpio.c ****   *           + IO operation functions
  10:Drivers/STM32F4xx_HAL_Driver/Src/stm32f4xx_hal_gpio.c ****   *
  11:Drivers/STM32F4xx_HAL_Driver/Src/stm32f4xx_hal_gpio.c ****   @verbatim
  12:Drivers/STM32F4xx_HAL_Driver/Src/stm32f4xx_hal_gpio.c ****   ==============================================================================
  13:Drivers/STM32F4xx_HAL_Driver/Src/stm32f4xx_hal_gpio.c ****                     ##### GPIO Peripheral features #####
  14:Drivers/STM32F4xx_HAL_Driver/Src/stm32f4xx_hal_gpio.c ****   ==============================================================================
  15:Drivers/STM32F4xx_HAL_Driver/Src/stm32f4xx_hal_gpio.c ****   [..] 
  16:Drivers/STM32F4xx_HAL_Driver/Src/stm32f4xx_hal_gpio.c ****   Subject to the specific hardware characteristics of each I/O port listed in the datasheet, each
  17:Drivers/STM32F4xx_HAL_Driver/Src/stm32f4xx_hal_gpio.c ****   port bit of the General Purpose IO (GPIO) Ports, can be individually configured by software
  18:Drivers/STM32F4xx_HAL_Driver/Src/stm32f4xx_hal_gpio.c ****   in several modes:
  19:Drivers/STM32F4xx_HAL_Driver/Src/stm32f4xx_hal_gpio.c ****   (+) Input mode 
  20:Drivers/STM32F4xx_HAL_Driver/Src/stm32f4xx_hal_gpio.c ****   (+) Analog mode
  21:Drivers/STM32F4xx_HAL_Driver/Src/stm32f4xx_hal_gpio.c ****   (+) Output mode
  22:Drivers/STM32F4xx_HAL_Driver/Src/stm32f4xx_hal_gpio.c ****   (+) Alternate function mode
  23:Drivers/STM32F4xx_HAL_Driver/Src/stm32f4xx_hal_gpio.c ****   (+) External interrupt/event lines
  24:Drivers/STM32F4xx_HAL_Driver/Src/stm32f4xx_hal_gpio.c **** 
  25:Drivers/STM32F4xx_HAL_Driver/Src/stm32f4xx_hal_gpio.c ****   [..]  
  26:Drivers/STM32F4xx_HAL_Driver/Src/stm32f4xx_hal_gpio.c ****   During and just after reset, the alternate functions and external interrupt  
  27:Drivers/STM32F4xx_HAL_Driver/Src/stm32f4xx_hal_gpio.c ****   lines are not active and the I/O ports are configured in input floating mode.
  28:Drivers/STM32F4xx_HAL_Driver/Src/stm32f4xx_hal_gpio.c ****   
  29:Drivers/STM32F4xx_HAL_Driver/Src/stm32f4xx_hal_gpio.c ****   [..]   
ARM GAS  C:\Users\DCONNO~1\AppData\Local\Temp\ccJteUrE.s 			page 2


  30:Drivers/STM32F4xx_HAL_Driver/Src/stm32f4xx_hal_gpio.c ****   All GPIO pins have weak internal pull-up and pull-down resistors, which can be 
  31:Drivers/STM32F4xx_HAL_Driver/Src/stm32f4xx_hal_gpio.c ****   activated or not.
  32:Drivers/STM32F4xx_HAL_Driver/Src/stm32f4xx_hal_gpio.c **** 
  33:Drivers/STM32F4xx_HAL_Driver/Src/stm32f4xx_hal_gpio.c ****   [..]
  34:Drivers/STM32F4xx_HAL_Driver/Src/stm32f4xx_hal_gpio.c ****   In Output or Alternate mode, each IO can be configured on open-drain or push-pull
  35:Drivers/STM32F4xx_HAL_Driver/Src/stm32f4xx_hal_gpio.c ****   type and the IO speed can be selected depending on the VDD value.
  36:Drivers/STM32F4xx_HAL_Driver/Src/stm32f4xx_hal_gpio.c **** 
  37:Drivers/STM32F4xx_HAL_Driver/Src/stm32f4xx_hal_gpio.c ****   [..]  
  38:Drivers/STM32F4xx_HAL_Driver/Src/stm32f4xx_hal_gpio.c ****   All ports have external interrupt/event capability. To use external interrupt 
  39:Drivers/STM32F4xx_HAL_Driver/Src/stm32f4xx_hal_gpio.c ****   lines, the port must be configured in input mode. All available GPIO pins are 
  40:Drivers/STM32F4xx_HAL_Driver/Src/stm32f4xx_hal_gpio.c ****   connected to the 16 external interrupt/event lines from EXTI0 to EXTI15.
  41:Drivers/STM32F4xx_HAL_Driver/Src/stm32f4xx_hal_gpio.c ****   
  42:Drivers/STM32F4xx_HAL_Driver/Src/stm32f4xx_hal_gpio.c ****   [..]
  43:Drivers/STM32F4xx_HAL_Driver/Src/stm32f4xx_hal_gpio.c ****   The external interrupt/event controller consists of up to 23 edge detectors 
  44:Drivers/STM32F4xx_HAL_Driver/Src/stm32f4xx_hal_gpio.c ****   (16 lines are connected to GPIO) for generating event/interrupt requests (each 
  45:Drivers/STM32F4xx_HAL_Driver/Src/stm32f4xx_hal_gpio.c ****   input line can be independently configured to select the type (interrupt or event) 
  46:Drivers/STM32F4xx_HAL_Driver/Src/stm32f4xx_hal_gpio.c ****   and the corresponding trigger event (rising or falling or both). Each line can 
  47:Drivers/STM32F4xx_HAL_Driver/Src/stm32f4xx_hal_gpio.c ****   also be masked independently. 
  48:Drivers/STM32F4xx_HAL_Driver/Src/stm32f4xx_hal_gpio.c **** 
  49:Drivers/STM32F4xx_HAL_Driver/Src/stm32f4xx_hal_gpio.c ****                      ##### How to use this driver #####
  50:Drivers/STM32F4xx_HAL_Driver/Src/stm32f4xx_hal_gpio.c ****   ==============================================================================  
  51:Drivers/STM32F4xx_HAL_Driver/Src/stm32f4xx_hal_gpio.c ****   [..]
  52:Drivers/STM32F4xx_HAL_Driver/Src/stm32f4xx_hal_gpio.c ****     (#) Enable the GPIO AHB clock using the following function: __HAL_RCC_GPIOx_CLK_ENABLE(). 
  53:Drivers/STM32F4xx_HAL_Driver/Src/stm32f4xx_hal_gpio.c **** 
  54:Drivers/STM32F4xx_HAL_Driver/Src/stm32f4xx_hal_gpio.c ****     (#) Configure the GPIO pin(s) using HAL_GPIO_Init().
  55:Drivers/STM32F4xx_HAL_Driver/Src/stm32f4xx_hal_gpio.c ****         (++) Configure the IO mode using "Mode" member from GPIO_InitTypeDef structure
  56:Drivers/STM32F4xx_HAL_Driver/Src/stm32f4xx_hal_gpio.c ****         (++) Activate Pull-up, Pull-down resistor using "Pull" member from GPIO_InitTypeDef 
  57:Drivers/STM32F4xx_HAL_Driver/Src/stm32f4xx_hal_gpio.c ****              structure.
  58:Drivers/STM32F4xx_HAL_Driver/Src/stm32f4xx_hal_gpio.c ****         (++) In case of Output or alternate function mode selection: the speed is 
  59:Drivers/STM32F4xx_HAL_Driver/Src/stm32f4xx_hal_gpio.c ****              configured through "Speed" member from GPIO_InitTypeDef structure.
  60:Drivers/STM32F4xx_HAL_Driver/Src/stm32f4xx_hal_gpio.c ****         (++) In alternate mode is selection, the alternate function connected to the IO
  61:Drivers/STM32F4xx_HAL_Driver/Src/stm32f4xx_hal_gpio.c ****              is configured through "Alternate" member from GPIO_InitTypeDef structure.
  62:Drivers/STM32F4xx_HAL_Driver/Src/stm32f4xx_hal_gpio.c ****         (++) Analog mode is required when a pin is to be used as ADC channel 
  63:Drivers/STM32F4xx_HAL_Driver/Src/stm32f4xx_hal_gpio.c ****              or DAC output.
  64:Drivers/STM32F4xx_HAL_Driver/Src/stm32f4xx_hal_gpio.c ****         (++) In case of external interrupt/event selection the "Mode" member from 
  65:Drivers/STM32F4xx_HAL_Driver/Src/stm32f4xx_hal_gpio.c ****              GPIO_InitTypeDef structure select the type (interrupt or event) and 
  66:Drivers/STM32F4xx_HAL_Driver/Src/stm32f4xx_hal_gpio.c ****              the corresponding trigger event (rising or falling or both).
  67:Drivers/STM32F4xx_HAL_Driver/Src/stm32f4xx_hal_gpio.c **** 
  68:Drivers/STM32F4xx_HAL_Driver/Src/stm32f4xx_hal_gpio.c ****     (#) In case of external interrupt/event mode selection, configure NVIC IRQ priority 
  69:Drivers/STM32F4xx_HAL_Driver/Src/stm32f4xx_hal_gpio.c ****         mapped to the EXTI line using HAL_NVIC_SetPriority() and enable it using
  70:Drivers/STM32F4xx_HAL_Driver/Src/stm32f4xx_hal_gpio.c ****         HAL_NVIC_EnableIRQ().
  71:Drivers/STM32F4xx_HAL_Driver/Src/stm32f4xx_hal_gpio.c ****          
  72:Drivers/STM32F4xx_HAL_Driver/Src/stm32f4xx_hal_gpio.c ****     (#) To get the level of a pin configured in input mode use HAL_GPIO_ReadPin().
  73:Drivers/STM32F4xx_HAL_Driver/Src/stm32f4xx_hal_gpio.c ****             
  74:Drivers/STM32F4xx_HAL_Driver/Src/stm32f4xx_hal_gpio.c ****     (#) To set/reset the level of a pin configured in output mode use 
  75:Drivers/STM32F4xx_HAL_Driver/Src/stm32f4xx_hal_gpio.c ****         HAL_GPIO_WritePin()/HAL_GPIO_TogglePin().
  76:Drivers/STM32F4xx_HAL_Driver/Src/stm32f4xx_hal_gpio.c ****     
  77:Drivers/STM32F4xx_HAL_Driver/Src/stm32f4xx_hal_gpio.c ****     (#) To lock pin configuration until next reset use HAL_GPIO_LockPin().
  78:Drivers/STM32F4xx_HAL_Driver/Src/stm32f4xx_hal_gpio.c **** 
  79:Drivers/STM32F4xx_HAL_Driver/Src/stm32f4xx_hal_gpio.c ****                  
  80:Drivers/STM32F4xx_HAL_Driver/Src/stm32f4xx_hal_gpio.c ****     (#) During and just after reset, the alternate functions are not 
  81:Drivers/STM32F4xx_HAL_Driver/Src/stm32f4xx_hal_gpio.c ****         active and the GPIO pins are configured in input floating mode (except JTAG
  82:Drivers/STM32F4xx_HAL_Driver/Src/stm32f4xx_hal_gpio.c ****         pins).
  83:Drivers/STM32F4xx_HAL_Driver/Src/stm32f4xx_hal_gpio.c ****   
  84:Drivers/STM32F4xx_HAL_Driver/Src/stm32f4xx_hal_gpio.c ****     (#) The LSE oscillator pins OSC32_IN and OSC32_OUT can be used as general purpose 
  85:Drivers/STM32F4xx_HAL_Driver/Src/stm32f4xx_hal_gpio.c ****         (PC14 and PC15, respectively) when the LSE oscillator is off. The LSE has 
  86:Drivers/STM32F4xx_HAL_Driver/Src/stm32f4xx_hal_gpio.c ****         priority over the GPIO function.
ARM GAS  C:\Users\DCONNO~1\AppData\Local\Temp\ccJteUrE.s 			page 3


  87:Drivers/STM32F4xx_HAL_Driver/Src/stm32f4xx_hal_gpio.c ****   
  88:Drivers/STM32F4xx_HAL_Driver/Src/stm32f4xx_hal_gpio.c ****     (#) The HSE oscillator pins OSC_IN/OSC_OUT can be used as 
  89:Drivers/STM32F4xx_HAL_Driver/Src/stm32f4xx_hal_gpio.c ****         general purpose PH0 and PH1, respectively, when the HSE oscillator is off. 
  90:Drivers/STM32F4xx_HAL_Driver/Src/stm32f4xx_hal_gpio.c ****         The HSE has priority over the GPIO function.
  91:Drivers/STM32F4xx_HAL_Driver/Src/stm32f4xx_hal_gpio.c ****   
  92:Drivers/STM32F4xx_HAL_Driver/Src/stm32f4xx_hal_gpio.c ****   @endverbatim
  93:Drivers/STM32F4xx_HAL_Driver/Src/stm32f4xx_hal_gpio.c ****   ******************************************************************************
  94:Drivers/STM32F4xx_HAL_Driver/Src/stm32f4xx_hal_gpio.c ****   * @attention
  95:Drivers/STM32F4xx_HAL_Driver/Src/stm32f4xx_hal_gpio.c ****   *
  96:Drivers/STM32F4xx_HAL_Driver/Src/stm32f4xx_hal_gpio.c ****   * <h2><center>&copy; Copyright (c) 2017 STMicroelectronics.
  97:Drivers/STM32F4xx_HAL_Driver/Src/stm32f4xx_hal_gpio.c ****   * All rights reserved.</center></h2>
  98:Drivers/STM32F4xx_HAL_Driver/Src/stm32f4xx_hal_gpio.c ****   *
  99:Drivers/STM32F4xx_HAL_Driver/Src/stm32f4xx_hal_gpio.c ****   * This software component is licensed by ST under BSD 3-Clause license,
 100:Drivers/STM32F4xx_HAL_Driver/Src/stm32f4xx_hal_gpio.c ****   * the "License"; You may not use this file except in compliance with the
 101:Drivers/STM32F4xx_HAL_Driver/Src/stm32f4xx_hal_gpio.c ****   * License. You may obtain a copy of the License at:
 102:Drivers/STM32F4xx_HAL_Driver/Src/stm32f4xx_hal_gpio.c ****   *                        opensource.org/licenses/BSD-3-Clause
 103:Drivers/STM32F4xx_HAL_Driver/Src/stm32f4xx_hal_gpio.c ****   *
 104:Drivers/STM32F4xx_HAL_Driver/Src/stm32f4xx_hal_gpio.c ****   ******************************************************************************
 105:Drivers/STM32F4xx_HAL_Driver/Src/stm32f4xx_hal_gpio.c ****   */ 
 106:Drivers/STM32F4xx_HAL_Driver/Src/stm32f4xx_hal_gpio.c **** 
 107:Drivers/STM32F4xx_HAL_Driver/Src/stm32f4xx_hal_gpio.c **** /* Includes ------------------------------------------------------------------*/
 108:Drivers/STM32F4xx_HAL_Driver/Src/stm32f4xx_hal_gpio.c **** #include "stm32f4xx_hal.h"
 109:Drivers/STM32F4xx_HAL_Driver/Src/stm32f4xx_hal_gpio.c **** 
 110:Drivers/STM32F4xx_HAL_Driver/Src/stm32f4xx_hal_gpio.c **** /** @addtogroup STM32F4xx_HAL_Driver
 111:Drivers/STM32F4xx_HAL_Driver/Src/stm32f4xx_hal_gpio.c ****   * @{
 112:Drivers/STM32F4xx_HAL_Driver/Src/stm32f4xx_hal_gpio.c ****   */
 113:Drivers/STM32F4xx_HAL_Driver/Src/stm32f4xx_hal_gpio.c **** 
 114:Drivers/STM32F4xx_HAL_Driver/Src/stm32f4xx_hal_gpio.c **** /** @defgroup GPIO GPIO
 115:Drivers/STM32F4xx_HAL_Driver/Src/stm32f4xx_hal_gpio.c ****   * @brief GPIO HAL module driver
 116:Drivers/STM32F4xx_HAL_Driver/Src/stm32f4xx_hal_gpio.c ****   * @{
 117:Drivers/STM32F4xx_HAL_Driver/Src/stm32f4xx_hal_gpio.c ****   */
 118:Drivers/STM32F4xx_HAL_Driver/Src/stm32f4xx_hal_gpio.c **** 
 119:Drivers/STM32F4xx_HAL_Driver/Src/stm32f4xx_hal_gpio.c **** #ifdef HAL_GPIO_MODULE_ENABLED
 120:Drivers/STM32F4xx_HAL_Driver/Src/stm32f4xx_hal_gpio.c **** 
 121:Drivers/STM32F4xx_HAL_Driver/Src/stm32f4xx_hal_gpio.c **** /* Private typedef -----------------------------------------------------------*/
 122:Drivers/STM32F4xx_HAL_Driver/Src/stm32f4xx_hal_gpio.c **** /* Private define ------------------------------------------------------------*/
 123:Drivers/STM32F4xx_HAL_Driver/Src/stm32f4xx_hal_gpio.c **** /** @addtogroup GPIO_Private_Constants GPIO Private Constants
 124:Drivers/STM32F4xx_HAL_Driver/Src/stm32f4xx_hal_gpio.c ****   * @{
 125:Drivers/STM32F4xx_HAL_Driver/Src/stm32f4xx_hal_gpio.c ****   */
 126:Drivers/STM32F4xx_HAL_Driver/Src/stm32f4xx_hal_gpio.c **** #define GPIO_MODE             0x00000003U
 127:Drivers/STM32F4xx_HAL_Driver/Src/stm32f4xx_hal_gpio.c **** #define EXTI_MODE             0x10000000U
 128:Drivers/STM32F4xx_HAL_Driver/Src/stm32f4xx_hal_gpio.c **** #define GPIO_MODE_IT          0x00010000U
 129:Drivers/STM32F4xx_HAL_Driver/Src/stm32f4xx_hal_gpio.c **** #define GPIO_MODE_EVT         0x00020000U
 130:Drivers/STM32F4xx_HAL_Driver/Src/stm32f4xx_hal_gpio.c **** #define RISING_EDGE           0x00100000U
 131:Drivers/STM32F4xx_HAL_Driver/Src/stm32f4xx_hal_gpio.c **** #define FALLING_EDGE          0x00200000U
 132:Drivers/STM32F4xx_HAL_Driver/Src/stm32f4xx_hal_gpio.c **** #define GPIO_OUTPUT_TYPE      0x00000010U
 133:Drivers/STM32F4xx_HAL_Driver/Src/stm32f4xx_hal_gpio.c **** 
 134:Drivers/STM32F4xx_HAL_Driver/Src/stm32f4xx_hal_gpio.c **** #define GPIO_NUMBER           16U
 135:Drivers/STM32F4xx_HAL_Driver/Src/stm32f4xx_hal_gpio.c **** /**
 136:Drivers/STM32F4xx_HAL_Driver/Src/stm32f4xx_hal_gpio.c ****   * @}
 137:Drivers/STM32F4xx_HAL_Driver/Src/stm32f4xx_hal_gpio.c ****   */
 138:Drivers/STM32F4xx_HAL_Driver/Src/stm32f4xx_hal_gpio.c **** /* Private macro -------------------------------------------------------------*/
 139:Drivers/STM32F4xx_HAL_Driver/Src/stm32f4xx_hal_gpio.c **** /* Private variables ---------------------------------------------------------*/
 140:Drivers/STM32F4xx_HAL_Driver/Src/stm32f4xx_hal_gpio.c **** /* Private function prototypes -----------------------------------------------*/
 141:Drivers/STM32F4xx_HAL_Driver/Src/stm32f4xx_hal_gpio.c **** /* Private functions ---------------------------------------------------------*/
 142:Drivers/STM32F4xx_HAL_Driver/Src/stm32f4xx_hal_gpio.c **** /* Exported functions --------------------------------------------------------*/
 143:Drivers/STM32F4xx_HAL_Driver/Src/stm32f4xx_hal_gpio.c **** /** @defgroup GPIO_Exported_Functions GPIO Exported Functions
ARM GAS  C:\Users\DCONNO~1\AppData\Local\Temp\ccJteUrE.s 			page 4


 144:Drivers/STM32F4xx_HAL_Driver/Src/stm32f4xx_hal_gpio.c ****   * @{
 145:Drivers/STM32F4xx_HAL_Driver/Src/stm32f4xx_hal_gpio.c ****   */
 146:Drivers/STM32F4xx_HAL_Driver/Src/stm32f4xx_hal_gpio.c **** 
 147:Drivers/STM32F4xx_HAL_Driver/Src/stm32f4xx_hal_gpio.c **** /** @defgroup GPIO_Exported_Functions_Group1 Initialization and de-initialization functions
 148:Drivers/STM32F4xx_HAL_Driver/Src/stm32f4xx_hal_gpio.c ****   *  @brief    Initialization and Configuration functions
 149:Drivers/STM32F4xx_HAL_Driver/Src/stm32f4xx_hal_gpio.c ****   *
 150:Drivers/STM32F4xx_HAL_Driver/Src/stm32f4xx_hal_gpio.c **** @verbatim    
 151:Drivers/STM32F4xx_HAL_Driver/Src/stm32f4xx_hal_gpio.c ****  ===============================================================================
 152:Drivers/STM32F4xx_HAL_Driver/Src/stm32f4xx_hal_gpio.c ****               ##### Initialization and de-initialization functions #####
 153:Drivers/STM32F4xx_HAL_Driver/Src/stm32f4xx_hal_gpio.c ****  ===============================================================================
 154:Drivers/STM32F4xx_HAL_Driver/Src/stm32f4xx_hal_gpio.c ****   [..]
 155:Drivers/STM32F4xx_HAL_Driver/Src/stm32f4xx_hal_gpio.c ****     This section provides functions allowing to initialize and de-initialize the GPIOs
 156:Drivers/STM32F4xx_HAL_Driver/Src/stm32f4xx_hal_gpio.c ****     to be ready for use.
 157:Drivers/STM32F4xx_HAL_Driver/Src/stm32f4xx_hal_gpio.c ****  
 158:Drivers/STM32F4xx_HAL_Driver/Src/stm32f4xx_hal_gpio.c **** @endverbatim
 159:Drivers/STM32F4xx_HAL_Driver/Src/stm32f4xx_hal_gpio.c ****   * @{
 160:Drivers/STM32F4xx_HAL_Driver/Src/stm32f4xx_hal_gpio.c ****   */
 161:Drivers/STM32F4xx_HAL_Driver/Src/stm32f4xx_hal_gpio.c **** 
 162:Drivers/STM32F4xx_HAL_Driver/Src/stm32f4xx_hal_gpio.c **** 
 163:Drivers/STM32F4xx_HAL_Driver/Src/stm32f4xx_hal_gpio.c **** /**
 164:Drivers/STM32F4xx_HAL_Driver/Src/stm32f4xx_hal_gpio.c ****   * @brief  Initializes the GPIOx peripheral according to the specified parameters in the GPIO_Init
 165:Drivers/STM32F4xx_HAL_Driver/Src/stm32f4xx_hal_gpio.c ****   * @param  GPIOx where x can be (A..K) to select the GPIO peripheral for STM32F429X device or
 166:Drivers/STM32F4xx_HAL_Driver/Src/stm32f4xx_hal_gpio.c ****   *                      x can be (A..I) to select the GPIO peripheral for STM32F40XX and STM32F427
 167:Drivers/STM32F4xx_HAL_Driver/Src/stm32f4xx_hal_gpio.c ****   * @param  GPIO_Init pointer to a GPIO_InitTypeDef structure that contains
 168:Drivers/STM32F4xx_HAL_Driver/Src/stm32f4xx_hal_gpio.c ****   *         the configuration information for the specified GPIO peripheral.
 169:Drivers/STM32F4xx_HAL_Driver/Src/stm32f4xx_hal_gpio.c ****   * @retval None
 170:Drivers/STM32F4xx_HAL_Driver/Src/stm32f4xx_hal_gpio.c ****   */
 171:Drivers/STM32F4xx_HAL_Driver/Src/stm32f4xx_hal_gpio.c **** void HAL_GPIO_Init(GPIO_TypeDef  *GPIOx, GPIO_InitTypeDef *GPIO_Init)
 172:Drivers/STM32F4xx_HAL_Driver/Src/stm32f4xx_hal_gpio.c **** {
  30              		.loc 1 172 1 view -0
  31              		.cfi_startproc
  32              		@ args = 0, pretend = 0, frame = 8
  33              		@ frame_needed = 0, uses_anonymous_args = 0
 173:Drivers/STM32F4xx_HAL_Driver/Src/stm32f4xx_hal_gpio.c ****   uint32_t position;
  34              		.loc 1 173 3 view .LVU1
 174:Drivers/STM32F4xx_HAL_Driver/Src/stm32f4xx_hal_gpio.c ****   uint32_t ioposition = 0x00U;
  35              		.loc 1 174 3 view .LVU2
 175:Drivers/STM32F4xx_HAL_Driver/Src/stm32f4xx_hal_gpio.c ****   uint32_t iocurrent = 0x00U;
  36              		.loc 1 175 3 view .LVU3
 176:Drivers/STM32F4xx_HAL_Driver/Src/stm32f4xx_hal_gpio.c ****   uint32_t temp = 0x00U;
  37              		.loc 1 176 3 view .LVU4
 177:Drivers/STM32F4xx_HAL_Driver/Src/stm32f4xx_hal_gpio.c **** 
 178:Drivers/STM32F4xx_HAL_Driver/Src/stm32f4xx_hal_gpio.c ****   /* Check the parameters */
 179:Drivers/STM32F4xx_HAL_Driver/Src/stm32f4xx_hal_gpio.c ****   assert_param(IS_GPIO_ALL_INSTANCE(GPIOx));
  38              		.loc 1 179 3 view .LVU5
 180:Drivers/STM32F4xx_HAL_Driver/Src/stm32f4xx_hal_gpio.c ****   assert_param(IS_GPIO_PIN(GPIO_Init->Pin));
  39              		.loc 1 180 3 view .LVU6
 181:Drivers/STM32F4xx_HAL_Driver/Src/stm32f4xx_hal_gpio.c ****   assert_param(IS_GPIO_MODE(GPIO_Init->Mode));
  40              		.loc 1 181 3 view .LVU7
 182:Drivers/STM32F4xx_HAL_Driver/Src/stm32f4xx_hal_gpio.c ****   assert_param(IS_GPIO_PULL(GPIO_Init->Pull));
  41              		.loc 1 182 3 view .LVU8
 183:Drivers/STM32F4xx_HAL_Driver/Src/stm32f4xx_hal_gpio.c **** 
 184:Drivers/STM32F4xx_HAL_Driver/Src/stm32f4xx_hal_gpio.c ****   /* Configure the port pins */
 185:Drivers/STM32F4xx_HAL_Driver/Src/stm32f4xx_hal_gpio.c ****   for(position = 0U; position < GPIO_NUMBER; position++)
  42              		.loc 1 185 3 view .LVU9
  43              		.loc 1 185 16 is_stmt 0 view .LVU10
  44 0000 0023     		movs	r3, #0
ARM GAS  C:\Users\DCONNO~1\AppData\Local\Temp\ccJteUrE.s 			page 5


  45              	.LVL1:
  46              		.loc 1 185 22 is_stmt 1 view .LVU11
  47              		.loc 1 185 3 is_stmt 0 view .LVU12
  48 0002 0F2B     		cmp	r3, #15
  49 0004 00F2E580 		bhi	.L27
 172:Drivers/STM32F4xx_HAL_Driver/Src/stm32f4xx_hal_gpio.c ****   uint32_t position;
  50              		.loc 1 172 1 view .LVU13
  51 0008 F0B5     		push	{r4, r5, r6, r7, lr}
  52              	.LCFI0:
  53              		.cfi_def_cfa_offset 20
  54              		.cfi_offset 4, -20
  55              		.cfi_offset 5, -16
  56              		.cfi_offset 6, -12
  57              		.cfi_offset 7, -8
  58              		.cfi_offset 14, -4
  59 000a 83B0     		sub	sp, sp, #12
  60              	.LCFI1:
  61              		.cfi_def_cfa_offset 32
  62 000c 39E0     		b	.L13
  63              	.LVL2:
  64              	.L29:
 186:Drivers/STM32F4xx_HAL_Driver/Src/stm32f4xx_hal_gpio.c ****   {
 187:Drivers/STM32F4xx_HAL_Driver/Src/stm32f4xx_hal_gpio.c ****     /* Get the IO position */
 188:Drivers/STM32F4xx_HAL_Driver/Src/stm32f4xx_hal_gpio.c ****     ioposition = 0x01U << position;
 189:Drivers/STM32F4xx_HAL_Driver/Src/stm32f4xx_hal_gpio.c ****     /* Get the current IO position */
 190:Drivers/STM32F4xx_HAL_Driver/Src/stm32f4xx_hal_gpio.c ****     iocurrent = (uint32_t)(GPIO_Init->Pin) & ioposition;
 191:Drivers/STM32F4xx_HAL_Driver/Src/stm32f4xx_hal_gpio.c **** 
 192:Drivers/STM32F4xx_HAL_Driver/Src/stm32f4xx_hal_gpio.c ****     if(iocurrent == ioposition)
 193:Drivers/STM32F4xx_HAL_Driver/Src/stm32f4xx_hal_gpio.c ****     {
 194:Drivers/STM32F4xx_HAL_Driver/Src/stm32f4xx_hal_gpio.c ****       /*--------------------- GPIO Mode Configuration ------------------------*/
 195:Drivers/STM32F4xx_HAL_Driver/Src/stm32f4xx_hal_gpio.c ****       /* In case of Output or Alternate function mode selection */
 196:Drivers/STM32F4xx_HAL_Driver/Src/stm32f4xx_hal_gpio.c ****       if((GPIO_Init->Mode == GPIO_MODE_OUTPUT_PP) || (GPIO_Init->Mode == GPIO_MODE_AF_PP) ||
 197:Drivers/STM32F4xx_HAL_Driver/Src/stm32f4xx_hal_gpio.c ****          (GPIO_Init->Mode == GPIO_MODE_OUTPUT_OD) || (GPIO_Init->Mode == GPIO_MODE_AF_OD))
 198:Drivers/STM32F4xx_HAL_Driver/Src/stm32f4xx_hal_gpio.c ****       {
 199:Drivers/STM32F4xx_HAL_Driver/Src/stm32f4xx_hal_gpio.c ****         /* Check the Speed parameter */
 200:Drivers/STM32F4xx_HAL_Driver/Src/stm32f4xx_hal_gpio.c ****         assert_param(IS_GPIO_SPEED(GPIO_Init->Speed));
 201:Drivers/STM32F4xx_HAL_Driver/Src/stm32f4xx_hal_gpio.c ****         /* Configure the IO Speed */
 202:Drivers/STM32F4xx_HAL_Driver/Src/stm32f4xx_hal_gpio.c ****         temp = GPIOx->OSPEEDR; 
 203:Drivers/STM32F4xx_HAL_Driver/Src/stm32f4xx_hal_gpio.c ****         temp &= ~(GPIO_OSPEEDER_OSPEEDR0 << (position * 2U));
 204:Drivers/STM32F4xx_HAL_Driver/Src/stm32f4xx_hal_gpio.c ****         temp |= (GPIO_Init->Speed << (position * 2U));
 205:Drivers/STM32F4xx_HAL_Driver/Src/stm32f4xx_hal_gpio.c ****         GPIOx->OSPEEDR = temp;
 206:Drivers/STM32F4xx_HAL_Driver/Src/stm32f4xx_hal_gpio.c **** 
 207:Drivers/STM32F4xx_HAL_Driver/Src/stm32f4xx_hal_gpio.c ****         /* Configure the IO Output Type */
 208:Drivers/STM32F4xx_HAL_Driver/Src/stm32f4xx_hal_gpio.c ****         temp = GPIOx->OTYPER;
 209:Drivers/STM32F4xx_HAL_Driver/Src/stm32f4xx_hal_gpio.c ****         temp &= ~(GPIO_OTYPER_OT_0 << position) ;
 210:Drivers/STM32F4xx_HAL_Driver/Src/stm32f4xx_hal_gpio.c ****         temp |= (((GPIO_Init->Mode & GPIO_OUTPUT_TYPE) >> 4U) << position);
 211:Drivers/STM32F4xx_HAL_Driver/Src/stm32f4xx_hal_gpio.c ****         GPIOx->OTYPER = temp;
 212:Drivers/STM32F4xx_HAL_Driver/Src/stm32f4xx_hal_gpio.c ****        }
 213:Drivers/STM32F4xx_HAL_Driver/Src/stm32f4xx_hal_gpio.c **** 
 214:Drivers/STM32F4xx_HAL_Driver/Src/stm32f4xx_hal_gpio.c ****       /* Activate the Pull-up or Pull down resistor for the current IO */
 215:Drivers/STM32F4xx_HAL_Driver/Src/stm32f4xx_hal_gpio.c ****       temp = GPIOx->PUPDR;
 216:Drivers/STM32F4xx_HAL_Driver/Src/stm32f4xx_hal_gpio.c ****       temp &= ~(GPIO_PUPDR_PUPDR0 << (position * 2U));
 217:Drivers/STM32F4xx_HAL_Driver/Src/stm32f4xx_hal_gpio.c ****       temp |= ((GPIO_Init->Pull) << (position * 2U));
 218:Drivers/STM32F4xx_HAL_Driver/Src/stm32f4xx_hal_gpio.c ****       GPIOx->PUPDR = temp;
 219:Drivers/STM32F4xx_HAL_Driver/Src/stm32f4xx_hal_gpio.c **** 
 220:Drivers/STM32F4xx_HAL_Driver/Src/stm32f4xx_hal_gpio.c ****       /* In case of Alternate function mode selection */
 221:Drivers/STM32F4xx_HAL_Driver/Src/stm32f4xx_hal_gpio.c ****       if((GPIO_Init->Mode == GPIO_MODE_AF_PP) || (GPIO_Init->Mode == GPIO_MODE_AF_OD))
ARM GAS  C:\Users\DCONNO~1\AppData\Local\Temp\ccJteUrE.s 			page 6


 222:Drivers/STM32F4xx_HAL_Driver/Src/stm32f4xx_hal_gpio.c ****       {
 223:Drivers/STM32F4xx_HAL_Driver/Src/stm32f4xx_hal_gpio.c ****         /* Check the Alternate function parameter */
 224:Drivers/STM32F4xx_HAL_Driver/Src/stm32f4xx_hal_gpio.c ****         assert_param(IS_GPIO_AF(GPIO_Init->Alternate));
 225:Drivers/STM32F4xx_HAL_Driver/Src/stm32f4xx_hal_gpio.c ****         /* Configure Alternate function mapped with the current IO */
 226:Drivers/STM32F4xx_HAL_Driver/Src/stm32f4xx_hal_gpio.c ****         temp = GPIOx->AFR[position >> 3U];
 227:Drivers/STM32F4xx_HAL_Driver/Src/stm32f4xx_hal_gpio.c ****         temp &= ~(0xFU << ((uint32_t)(position & 0x07U) * 4U)) ;
 228:Drivers/STM32F4xx_HAL_Driver/Src/stm32f4xx_hal_gpio.c ****         temp |= ((uint32_t)(GPIO_Init->Alternate) << (((uint32_t)position & 0x07U) * 4U));
 229:Drivers/STM32F4xx_HAL_Driver/Src/stm32f4xx_hal_gpio.c ****         GPIOx->AFR[position >> 3U] = temp;
 230:Drivers/STM32F4xx_HAL_Driver/Src/stm32f4xx_hal_gpio.c ****       }
 231:Drivers/STM32F4xx_HAL_Driver/Src/stm32f4xx_hal_gpio.c **** 
 232:Drivers/STM32F4xx_HAL_Driver/Src/stm32f4xx_hal_gpio.c ****       /* Configure IO Direction mode (Input, Output, Alternate or Analog) */
 233:Drivers/STM32F4xx_HAL_Driver/Src/stm32f4xx_hal_gpio.c ****       temp = GPIOx->MODER;
 234:Drivers/STM32F4xx_HAL_Driver/Src/stm32f4xx_hal_gpio.c ****       temp &= ~(GPIO_MODER_MODER0 << (position * 2U));
 235:Drivers/STM32F4xx_HAL_Driver/Src/stm32f4xx_hal_gpio.c ****       temp |= ((GPIO_Init->Mode & GPIO_MODE) << (position * 2U));
 236:Drivers/STM32F4xx_HAL_Driver/Src/stm32f4xx_hal_gpio.c ****       GPIOx->MODER = temp;
 237:Drivers/STM32F4xx_HAL_Driver/Src/stm32f4xx_hal_gpio.c **** 
 238:Drivers/STM32F4xx_HAL_Driver/Src/stm32f4xx_hal_gpio.c ****       /*--------------------- EXTI Mode Configuration ------------------------*/
 239:Drivers/STM32F4xx_HAL_Driver/Src/stm32f4xx_hal_gpio.c ****       /* Configure the External Interrupt or event for the current IO */
 240:Drivers/STM32F4xx_HAL_Driver/Src/stm32f4xx_hal_gpio.c ****       if((GPIO_Init->Mode & EXTI_MODE) == EXTI_MODE)
 241:Drivers/STM32F4xx_HAL_Driver/Src/stm32f4xx_hal_gpio.c ****       {
 242:Drivers/STM32F4xx_HAL_Driver/Src/stm32f4xx_hal_gpio.c ****         /* Enable SYSCFG Clock */
 243:Drivers/STM32F4xx_HAL_Driver/Src/stm32f4xx_hal_gpio.c ****         __HAL_RCC_SYSCFG_CLK_ENABLE();
 244:Drivers/STM32F4xx_HAL_Driver/Src/stm32f4xx_hal_gpio.c **** 
 245:Drivers/STM32F4xx_HAL_Driver/Src/stm32f4xx_hal_gpio.c ****         temp = SYSCFG->EXTICR[position >> 2U];
 246:Drivers/STM32F4xx_HAL_Driver/Src/stm32f4xx_hal_gpio.c ****         temp &= ~(0x0FU << (4U * (position & 0x03U)));
 247:Drivers/STM32F4xx_HAL_Driver/Src/stm32f4xx_hal_gpio.c ****         temp |= ((uint32_t)(GPIO_GET_INDEX(GPIOx)) << (4U * (position & 0x03U)));
  65              		.loc 1 247 29 view .LVU14
  66 000e 0922     		movs	r2, #9
  67 0010 00E0     		b	.L8
  68              	.L14:
  69              		.loc 1 247 18 view .LVU15
  70 0012 0022     		movs	r2, #0
  71              	.L8:
  72              		.loc 1 247 52 discriminator 40 view .LVU16
  73 0014 B240     		lsls	r2, r2, r6
  74              		.loc 1 247 14 discriminator 40 view .LVU17
  75 0016 3A43     		orrs	r2, r2, r7
  76              	.LVL3:
 248:Drivers/STM32F4xx_HAL_Driver/Src/stm32f4xx_hal_gpio.c ****         SYSCFG->EXTICR[position >> 2U] = temp;
  77              		.loc 1 248 9 is_stmt 1 discriminator 40 view .LVU18
  78              		.loc 1 248 40 is_stmt 0 discriminator 40 view .LVU19
  79 0018 0234     		adds	r4, r4, #2
  80 001a 6E4E     		ldr	r6, .L30
  81 001c 46F82420 		str	r2, [r6, r4, lsl #2]
 249:Drivers/STM32F4xx_HAL_Driver/Src/stm32f4xx_hal_gpio.c **** 
 250:Drivers/STM32F4xx_HAL_Driver/Src/stm32f4xx_hal_gpio.c ****         /* Clear EXTI line configuration */
 251:Drivers/STM32F4xx_HAL_Driver/Src/stm32f4xx_hal_gpio.c ****         temp = EXTI->IMR;
  82              		.loc 1 251 9 is_stmt 1 discriminator 40 view .LVU20
  83              		.loc 1 251 14 is_stmt 0 discriminator 40 view .LVU21
  84 0020 6D4A     		ldr	r2, .L30+4
  85              	.LVL4:
  86              		.loc 1 251 14 discriminator 40 view .LVU22
  87 0022 1468     		ldr	r4, [r2]
  88              	.LVL5:
 252:Drivers/STM32F4xx_HAL_Driver/Src/stm32f4xx_hal_gpio.c ****         temp &= ~((uint32_t)iocurrent);
  89              		.loc 1 252 9 is_stmt 1 discriminator 40 view .LVU23
  90              		.loc 1 252 17 is_stmt 0 discriminator 40 view .LVU24
ARM GAS  C:\Users\DCONNO~1\AppData\Local\Temp\ccJteUrE.s 			page 7


  91 0024 EA43     		mvns	r2, r5
  92              		.loc 1 252 14 discriminator 40 view .LVU25
  93 0026 24EA0506 		bic	r6, r4, r5
  94              	.LVL6:
 253:Drivers/STM32F4xx_HAL_Driver/Src/stm32f4xx_hal_gpio.c ****         if((GPIO_Init->Mode & GPIO_MODE_IT) == GPIO_MODE_IT)
  95              		.loc 1 253 9 is_stmt 1 discriminator 40 view .LVU26
  96              		.loc 1 253 22 is_stmt 0 discriminator 40 view .LVU27
  97 002a 4F68     		ldr	r7, [r1, #4]
  98              		.loc 1 253 11 discriminator 40 view .LVU28
  99 002c 17F4803F 		tst	r7, #65536
 100 0030 01D0     		beq	.L9
 254:Drivers/STM32F4xx_HAL_Driver/Src/stm32f4xx_hal_gpio.c ****         {
 255:Drivers/STM32F4xx_HAL_Driver/Src/stm32f4xx_hal_gpio.c ****           temp |= iocurrent;
 101              		.loc 1 255 11 is_stmt 1 view .LVU29
 102              		.loc 1 255 16 is_stmt 0 view .LVU30
 103 0032 45EA0406 		orr	r6, r5, r4
 104              	.LVL7:
 105              	.L9:
 256:Drivers/STM32F4xx_HAL_Driver/Src/stm32f4xx_hal_gpio.c ****         }
 257:Drivers/STM32F4xx_HAL_Driver/Src/stm32f4xx_hal_gpio.c ****         EXTI->IMR = temp;
 106              		.loc 1 257 9 is_stmt 1 view .LVU31
 107              		.loc 1 257 19 is_stmt 0 view .LVU32
 108 0036 684C     		ldr	r4, .L30+4
 109 0038 2660     		str	r6, [r4]
 258:Drivers/STM32F4xx_HAL_Driver/Src/stm32f4xx_hal_gpio.c **** 
 259:Drivers/STM32F4xx_HAL_Driver/Src/stm32f4xx_hal_gpio.c ****         temp = EXTI->EMR;
 110              		.loc 1 259 9 is_stmt 1 view .LVU33
 111              		.loc 1 259 14 is_stmt 0 view .LVU34
 112 003a 6468     		ldr	r4, [r4, #4]
 113              	.LVL8:
 260:Drivers/STM32F4xx_HAL_Driver/Src/stm32f4xx_hal_gpio.c ****         temp &= ~((uint32_t)iocurrent);
 114              		.loc 1 260 9 is_stmt 1 view .LVU35
 115              		.loc 1 260 14 is_stmt 0 view .LVU36
 116 003c 02EA0406 		and	r6, r2, r4
 117              	.LVL9:
 261:Drivers/STM32F4xx_HAL_Driver/Src/stm32f4xx_hal_gpio.c ****         if((GPIO_Init->Mode & GPIO_MODE_EVT) == GPIO_MODE_EVT)
 118              		.loc 1 261 9 is_stmt 1 view .LVU37
 119              		.loc 1 261 22 is_stmt 0 view .LVU38
 120 0040 4F68     		ldr	r7, [r1, #4]
 121              		.loc 1 261 11 view .LVU39
 122 0042 17F4003F 		tst	r7, #131072
 123 0046 01D0     		beq	.L10
 262:Drivers/STM32F4xx_HAL_Driver/Src/stm32f4xx_hal_gpio.c ****         {
 263:Drivers/STM32F4xx_HAL_Driver/Src/stm32f4xx_hal_gpio.c ****           temp |= iocurrent;
 124              		.loc 1 263 11 is_stmt 1 view .LVU40
 125              		.loc 1 263 16 is_stmt 0 view .LVU41
 126 0048 45EA0406 		orr	r6, r5, r4
 127              	.LVL10:
 128              	.L10:
 264:Drivers/STM32F4xx_HAL_Driver/Src/stm32f4xx_hal_gpio.c ****         }
 265:Drivers/STM32F4xx_HAL_Driver/Src/stm32f4xx_hal_gpio.c ****         EXTI->EMR = temp;
 129              		.loc 1 265 9 is_stmt 1 view .LVU42
 130              		.loc 1 265 19 is_stmt 0 view .LVU43
 131 004c 624C     		ldr	r4, .L30+4
 132 004e 6660     		str	r6, [r4, #4]
 266:Drivers/STM32F4xx_HAL_Driver/Src/stm32f4xx_hal_gpio.c **** 
 267:Drivers/STM32F4xx_HAL_Driver/Src/stm32f4xx_hal_gpio.c ****         /* Clear Rising Falling edge configuration */
ARM GAS  C:\Users\DCONNO~1\AppData\Local\Temp\ccJteUrE.s 			page 8


 268:Drivers/STM32F4xx_HAL_Driver/Src/stm32f4xx_hal_gpio.c ****         temp = EXTI->RTSR;
 133              		.loc 1 268 9 is_stmt 1 view .LVU44
 134              		.loc 1 268 14 is_stmt 0 view .LVU45
 135 0050 A468     		ldr	r4, [r4, #8]
 136              	.LVL11:
 269:Drivers/STM32F4xx_HAL_Driver/Src/stm32f4xx_hal_gpio.c ****         temp &= ~((uint32_t)iocurrent);
 137              		.loc 1 269 9 is_stmt 1 view .LVU46
 138              		.loc 1 269 14 is_stmt 0 view .LVU47
 139 0052 02EA0406 		and	r6, r2, r4
 140              	.LVL12:
 270:Drivers/STM32F4xx_HAL_Driver/Src/stm32f4xx_hal_gpio.c ****         if((GPIO_Init->Mode & RISING_EDGE) == RISING_EDGE)
 141              		.loc 1 270 9 is_stmt 1 view .LVU48
 142              		.loc 1 270 22 is_stmt 0 view .LVU49
 143 0056 4F68     		ldr	r7, [r1, #4]
 144              		.loc 1 270 11 view .LVU50
 145 0058 17F4801F 		tst	r7, #1048576
 146 005c 01D0     		beq	.L11
 271:Drivers/STM32F4xx_HAL_Driver/Src/stm32f4xx_hal_gpio.c ****         {
 272:Drivers/STM32F4xx_HAL_Driver/Src/stm32f4xx_hal_gpio.c ****           temp |= iocurrent;
 147              		.loc 1 272 11 is_stmt 1 view .LVU51
 148              		.loc 1 272 16 is_stmt 0 view .LVU52
 149 005e 45EA0406 		orr	r6, r5, r4
 150              	.LVL13:
 151              	.L11:
 273:Drivers/STM32F4xx_HAL_Driver/Src/stm32f4xx_hal_gpio.c ****         }
 274:Drivers/STM32F4xx_HAL_Driver/Src/stm32f4xx_hal_gpio.c ****         EXTI->RTSR = temp;
 152              		.loc 1 274 9 is_stmt 1 view .LVU53
 153              		.loc 1 274 20 is_stmt 0 view .LVU54
 154 0062 5D4C     		ldr	r4, .L30+4
 155 0064 A660     		str	r6, [r4, #8]
 275:Drivers/STM32F4xx_HAL_Driver/Src/stm32f4xx_hal_gpio.c **** 
 276:Drivers/STM32F4xx_HAL_Driver/Src/stm32f4xx_hal_gpio.c ****         temp = EXTI->FTSR;
 156              		.loc 1 276 9 is_stmt 1 view .LVU55
 157              		.loc 1 276 14 is_stmt 0 view .LVU56
 158 0066 E468     		ldr	r4, [r4, #12]
 159              	.LVL14:
 277:Drivers/STM32F4xx_HAL_Driver/Src/stm32f4xx_hal_gpio.c ****         temp &= ~((uint32_t)iocurrent);
 160              		.loc 1 277 9 is_stmt 1 view .LVU57
 161              		.loc 1 277 14 is_stmt 0 view .LVU58
 162 0068 2240     		ands	r2, r2, r4
 163              	.LVL15:
 278:Drivers/STM32F4xx_HAL_Driver/Src/stm32f4xx_hal_gpio.c ****         if((GPIO_Init->Mode & FALLING_EDGE) == FALLING_EDGE)
 164              		.loc 1 278 9 is_stmt 1 view .LVU59
 165              		.loc 1 278 22 is_stmt 0 view .LVU60
 166 006a 4E68     		ldr	r6, [r1, #4]
 167              		.loc 1 278 11 view .LVU61
 168 006c 16F4001F 		tst	r6, #2097152
 169 0070 01D0     		beq	.L12
 279:Drivers/STM32F4xx_HAL_Driver/Src/stm32f4xx_hal_gpio.c ****         {
 280:Drivers/STM32F4xx_HAL_Driver/Src/stm32f4xx_hal_gpio.c ****           temp |= iocurrent;
 170              		.loc 1 280 11 is_stmt 1 view .LVU62
 171              		.loc 1 280 16 is_stmt 0 view .LVU63
 172 0072 45EA0402 		orr	r2, r5, r4
 173              	.LVL16:
 174              	.L12:
 281:Drivers/STM32F4xx_HAL_Driver/Src/stm32f4xx_hal_gpio.c ****         }
 282:Drivers/STM32F4xx_HAL_Driver/Src/stm32f4xx_hal_gpio.c ****         EXTI->FTSR = temp;
ARM GAS  C:\Users\DCONNO~1\AppData\Local\Temp\ccJteUrE.s 			page 9


 175              		.loc 1 282 9 is_stmt 1 view .LVU64
 176              		.loc 1 282 20 is_stmt 0 view .LVU65
 177 0076 584C     		ldr	r4, .L30+4
 178 0078 E260     		str	r2, [r4, #12]
 179              	.LVL17:
 180              	.L3:
 185:Drivers/STM32F4xx_HAL_Driver/Src/stm32f4xx_hal_gpio.c ****   {
 181              		.loc 1 185 46 is_stmt 1 discriminator 2 view .LVU66
 185:Drivers/STM32F4xx_HAL_Driver/Src/stm32f4xx_hal_gpio.c ****   {
 182              		.loc 1 185 54 is_stmt 0 discriminator 2 view .LVU67
 183 007a 0133     		adds	r3, r3, #1
 184              	.LVL18:
 185:Drivers/STM32F4xx_HAL_Driver/Src/stm32f4xx_hal_gpio.c ****   {
 185              		.loc 1 185 22 is_stmt 1 discriminator 2 view .LVU68
 185:Drivers/STM32F4xx_HAL_Driver/Src/stm32f4xx_hal_gpio.c ****   {
 186              		.loc 1 185 3 is_stmt 0 discriminator 2 view .LVU69
 187 007c 0F2B     		cmp	r3, #15
 188 007e 00F2A680 		bhi	.L28
 189              	.LVL19:
 190              	.L13:
 188:Drivers/STM32F4xx_HAL_Driver/Src/stm32f4xx_hal_gpio.c ****     /* Get the current IO position */
 191              		.loc 1 188 5 is_stmt 1 view .LVU70
 188:Drivers/STM32F4xx_HAL_Driver/Src/stm32f4xx_hal_gpio.c ****     /* Get the current IO position */
 192              		.loc 1 188 16 is_stmt 0 view .LVU71
 193 0082 0122     		movs	r2, #1
 194 0084 9A40     		lsls	r2, r2, r3
 195              	.LVL20:
 190:Drivers/STM32F4xx_HAL_Driver/Src/stm32f4xx_hal_gpio.c **** 
 196              		.loc 1 190 5 is_stmt 1 view .LVU72
 190:Drivers/STM32F4xx_HAL_Driver/Src/stm32f4xx_hal_gpio.c **** 
 197              		.loc 1 190 37 is_stmt 0 view .LVU73
 198 0086 0C68     		ldr	r4, [r1]
 190:Drivers/STM32F4xx_HAL_Driver/Src/stm32f4xx_hal_gpio.c **** 
 199              		.loc 1 190 15 view .LVU74
 200 0088 04EA0205 		and	r5, r4, r2
 201              	.LVL21:
 192:Drivers/STM32F4xx_HAL_Driver/Src/stm32f4xx_hal_gpio.c ****     {
 202              		.loc 1 192 5 is_stmt 1 view .LVU75
 192:Drivers/STM32F4xx_HAL_Driver/Src/stm32f4xx_hal_gpio.c ****     {
 203              		.loc 1 192 7 is_stmt 0 view .LVU76
 204 008c 32EA0404 		bics	r4, r2, r4
 205 0090 F3D1     		bne	.L3
 196:Drivers/STM32F4xx_HAL_Driver/Src/stm32f4xx_hal_gpio.c ****          (GPIO_Init->Mode == GPIO_MODE_OUTPUT_OD) || (GPIO_Init->Mode == GPIO_MODE_AF_OD))
 206              		.loc 1 196 7 is_stmt 1 view .LVU77
 196:Drivers/STM32F4xx_HAL_Driver/Src/stm32f4xx_hal_gpio.c ****          (GPIO_Init->Mode == GPIO_MODE_OUTPUT_OD) || (GPIO_Init->Mode == GPIO_MODE_AF_OD))
 207              		.loc 1 196 20 is_stmt 0 view .LVU78
 208 0092 4C68     		ldr	r4, [r1, #4]
 196:Drivers/STM32F4xx_HAL_Driver/Src/stm32f4xx_hal_gpio.c ****          (GPIO_Init->Mode == GPIO_MODE_OUTPUT_OD) || (GPIO_Init->Mode == GPIO_MODE_AF_OD))
 209              		.loc 1 196 51 view .LVU79
 210 0094 661E     		subs	r6, r4, #1
 196:Drivers/STM32F4xx_HAL_Driver/Src/stm32f4xx_hal_gpio.c ****          (GPIO_Init->Mode == GPIO_MODE_OUTPUT_OD) || (GPIO_Init->Mode == GPIO_MODE_AF_OD))
 211              		.loc 1 196 9 view .LVU80
 212 0096 012E     		cmp	r6, #1
 213 0098 03D9     		bls	.L4
 196:Drivers/STM32F4xx_HAL_Driver/Src/stm32f4xx_hal_gpio.c ****          (GPIO_Init->Mode == GPIO_MODE_OUTPUT_OD) || (GPIO_Init->Mode == GPIO_MODE_AF_OD))
 214              		.loc 1 196 91 discriminator 1 view .LVU81
 215 009a 112C     		cmp	r4, #17
ARM GAS  C:\Users\DCONNO~1\AppData\Local\Temp\ccJteUrE.s 			page 10


 216 009c 01D0     		beq	.L4
 197:Drivers/STM32F4xx_HAL_Driver/Src/stm32f4xx_hal_gpio.c ****       {
 217              		.loc 1 197 51 view .LVU82
 218 009e 122C     		cmp	r4, #18
 219 00a0 12D1     		bne	.L5
 220              	.L4:
 200:Drivers/STM32F4xx_HAL_Driver/Src/stm32f4xx_hal_gpio.c ****         /* Configure the IO Speed */
 221              		.loc 1 200 9 is_stmt 1 view .LVU83
 202:Drivers/STM32F4xx_HAL_Driver/Src/stm32f4xx_hal_gpio.c ****         temp &= ~(GPIO_OSPEEDER_OSPEEDR0 << (position * 2U));
 222              		.loc 1 202 9 view .LVU84
 202:Drivers/STM32F4xx_HAL_Driver/Src/stm32f4xx_hal_gpio.c ****         temp &= ~(GPIO_OSPEEDER_OSPEEDR0 << (position * 2U));
 223              		.loc 1 202 14 is_stmt 0 view .LVU85
 224 00a2 8668     		ldr	r6, [r0, #8]
 225              	.LVL22:
 203:Drivers/STM32F4xx_HAL_Driver/Src/stm32f4xx_hal_gpio.c ****         temp |= (GPIO_Init->Speed << (position * 2U));
 226              		.loc 1 203 9 is_stmt 1 view .LVU86
 203:Drivers/STM32F4xx_HAL_Driver/Src/stm32f4xx_hal_gpio.c ****         temp |= (GPIO_Init->Speed << (position * 2U));
 227              		.loc 1 203 55 is_stmt 0 view .LVU87
 228 00a4 5F00     		lsls	r7, r3, #1
 203:Drivers/STM32F4xx_HAL_Driver/Src/stm32f4xx_hal_gpio.c ****         temp |= (GPIO_Init->Speed << (position * 2U));
 229              		.loc 1 203 42 view .LVU88
 230 00a6 0324     		movs	r4, #3
 231 00a8 BC40     		lsls	r4, r4, r7
 203:Drivers/STM32F4xx_HAL_Driver/Src/stm32f4xx_hal_gpio.c ****         temp |= (GPIO_Init->Speed << (position * 2U));
 232              		.loc 1 203 14 view .LVU89
 233 00aa 26EA0406 		bic	r6, r6, r4
 234              	.LVL23:
 204:Drivers/STM32F4xx_HAL_Driver/Src/stm32f4xx_hal_gpio.c ****         GPIOx->OSPEEDR = temp;
 235              		.loc 1 204 9 is_stmt 1 view .LVU90
 204:Drivers/STM32F4xx_HAL_Driver/Src/stm32f4xx_hal_gpio.c ****         GPIOx->OSPEEDR = temp;
 236              		.loc 1 204 27 is_stmt 0 view .LVU91
 237 00ae CC68     		ldr	r4, [r1, #12]
 204:Drivers/STM32F4xx_HAL_Driver/Src/stm32f4xx_hal_gpio.c ****         GPIOx->OSPEEDR = temp;
 238              		.loc 1 204 35 view .LVU92
 239 00b0 BC40     		lsls	r4, r4, r7
 204:Drivers/STM32F4xx_HAL_Driver/Src/stm32f4xx_hal_gpio.c ****         GPIOx->OSPEEDR = temp;
 240              		.loc 1 204 14 view .LVU93
 241 00b2 3443     		orrs	r4, r4, r6
 242              	.LVL24:
 205:Drivers/STM32F4xx_HAL_Driver/Src/stm32f4xx_hal_gpio.c **** 
 243              		.loc 1 205 9 is_stmt 1 view .LVU94
 205:Drivers/STM32F4xx_HAL_Driver/Src/stm32f4xx_hal_gpio.c **** 
 244              		.loc 1 205 24 is_stmt 0 view .LVU95
 245 00b4 8460     		str	r4, [r0, #8]
 208:Drivers/STM32F4xx_HAL_Driver/Src/stm32f4xx_hal_gpio.c ****         temp &= ~(GPIO_OTYPER_OT_0 << position) ;
 246              		.loc 1 208 9 is_stmt 1 view .LVU96
 208:Drivers/STM32F4xx_HAL_Driver/Src/stm32f4xx_hal_gpio.c ****         temp &= ~(GPIO_OTYPER_OT_0 << position) ;
 247              		.loc 1 208 14 is_stmt 0 view .LVU97
 248 00b6 4668     		ldr	r6, [r0, #4]
 249              	.LVL25:
 209:Drivers/STM32F4xx_HAL_Driver/Src/stm32f4xx_hal_gpio.c ****         temp |= (((GPIO_Init->Mode & GPIO_OUTPUT_TYPE) >> 4U) << position);
 250              		.loc 1 209 9 is_stmt 1 view .LVU98
 209:Drivers/STM32F4xx_HAL_Driver/Src/stm32f4xx_hal_gpio.c ****         temp |= (((GPIO_Init->Mode & GPIO_OUTPUT_TYPE) >> 4U) << position);
 251              		.loc 1 209 14 is_stmt 0 view .LVU99
 252 00b8 26EA0206 		bic	r6, r6, r2
 253              	.LVL26:
 210:Drivers/STM32F4xx_HAL_Driver/Src/stm32f4xx_hal_gpio.c ****         GPIOx->OTYPER = temp;
ARM GAS  C:\Users\DCONNO~1\AppData\Local\Temp\ccJteUrE.s 			page 11


 254              		.loc 1 210 9 is_stmt 1 view .LVU100
 210:Drivers/STM32F4xx_HAL_Driver/Src/stm32f4xx_hal_gpio.c ****         GPIOx->OTYPER = temp;
 255              		.loc 1 210 29 is_stmt 0 view .LVU101
 256 00bc 4C68     		ldr	r4, [r1, #4]
 210:Drivers/STM32F4xx_HAL_Driver/Src/stm32f4xx_hal_gpio.c ****         GPIOx->OTYPER = temp;
 257              		.loc 1 210 56 view .LVU102
 258 00be C4F30012 		ubfx	r2, r4, #4, #1
 259              	.LVL27:
 210:Drivers/STM32F4xx_HAL_Driver/Src/stm32f4xx_hal_gpio.c ****         GPIOx->OTYPER = temp;
 260              		.loc 1 210 63 view .LVU103
 261 00c2 9A40     		lsls	r2, r2, r3
 210:Drivers/STM32F4xx_HAL_Driver/Src/stm32f4xx_hal_gpio.c ****         GPIOx->OTYPER = temp;
 262              		.loc 1 210 14 view .LVU104
 263 00c4 3243     		orrs	r2, r2, r6
 264              	.LVL28:
 211:Drivers/STM32F4xx_HAL_Driver/Src/stm32f4xx_hal_gpio.c ****        }
 265              		.loc 1 211 9 is_stmt 1 view .LVU105
 211:Drivers/STM32F4xx_HAL_Driver/Src/stm32f4xx_hal_gpio.c ****        }
 266              		.loc 1 211 23 is_stmt 0 view .LVU106
 267 00c6 4260     		str	r2, [r0, #4]
 268              	.LVL29:
 269              	.L5:
 215:Drivers/STM32F4xx_HAL_Driver/Src/stm32f4xx_hal_gpio.c ****       temp &= ~(GPIO_PUPDR_PUPDR0 << (position * 2U));
 270              		.loc 1 215 7 is_stmt 1 view .LVU107
 215:Drivers/STM32F4xx_HAL_Driver/Src/stm32f4xx_hal_gpio.c ****       temp &= ~(GPIO_PUPDR_PUPDR0 << (position * 2U));
 271              		.loc 1 215 12 is_stmt 0 view .LVU108
 272 00c8 C768     		ldr	r7, [r0, #12]
 273              	.LVL30:
 216:Drivers/STM32F4xx_HAL_Driver/Src/stm32f4xx_hal_gpio.c ****       temp |= ((GPIO_Init->Pull) << (position * 2U));
 274              		.loc 1 216 7 is_stmt 1 view .LVU109
 216:Drivers/STM32F4xx_HAL_Driver/Src/stm32f4xx_hal_gpio.c ****       temp |= ((GPIO_Init->Pull) << (position * 2U));
 275              		.loc 1 216 48 is_stmt 0 view .LVU110
 276 00ca 5E00     		lsls	r6, r3, #1
 216:Drivers/STM32F4xx_HAL_Driver/Src/stm32f4xx_hal_gpio.c ****       temp |= ((GPIO_Init->Pull) << (position * 2U));
 277              		.loc 1 216 35 view .LVU111
 278 00cc 0324     		movs	r4, #3
 279 00ce B440     		lsls	r4, r4, r6
 216:Drivers/STM32F4xx_HAL_Driver/Src/stm32f4xx_hal_gpio.c ****       temp |= ((GPIO_Init->Pull) << (position * 2U));
 280              		.loc 1 216 15 view .LVU112
 281 00d0 E243     		mvns	r2, r4
 216:Drivers/STM32F4xx_HAL_Driver/Src/stm32f4xx_hal_gpio.c ****       temp |= ((GPIO_Init->Pull) << (position * 2U));
 282              		.loc 1 216 12 view .LVU113
 283 00d2 27EA0407 		bic	r7, r7, r4
 284              	.LVL31:
 217:Drivers/STM32F4xx_HAL_Driver/Src/stm32f4xx_hal_gpio.c ****       GPIOx->PUPDR = temp;
 285              		.loc 1 217 7 is_stmt 1 view .LVU114
 217:Drivers/STM32F4xx_HAL_Driver/Src/stm32f4xx_hal_gpio.c ****       GPIOx->PUPDR = temp;
 286              		.loc 1 217 26 is_stmt 0 view .LVU115
 287 00d6 8C68     		ldr	r4, [r1, #8]
 217:Drivers/STM32F4xx_HAL_Driver/Src/stm32f4xx_hal_gpio.c ****       GPIOx->PUPDR = temp;
 288              		.loc 1 217 34 view .LVU116
 289 00d8 B440     		lsls	r4, r4, r6
 217:Drivers/STM32F4xx_HAL_Driver/Src/stm32f4xx_hal_gpio.c ****       GPIOx->PUPDR = temp;
 290              		.loc 1 217 12 view .LVU117
 291 00da 3C43     		orrs	r4, r4, r7
 292              	.LVL32:
 218:Drivers/STM32F4xx_HAL_Driver/Src/stm32f4xx_hal_gpio.c **** 
ARM GAS  C:\Users\DCONNO~1\AppData\Local\Temp\ccJteUrE.s 			page 12


 293              		.loc 1 218 7 is_stmt 1 view .LVU118
 218:Drivers/STM32F4xx_HAL_Driver/Src/stm32f4xx_hal_gpio.c **** 
 294              		.loc 1 218 20 is_stmt 0 view .LVU119
 295 00dc C460     		str	r4, [r0, #12]
 221:Drivers/STM32F4xx_HAL_Driver/Src/stm32f4xx_hal_gpio.c ****       {
 296              		.loc 1 221 7 is_stmt 1 view .LVU120
 221:Drivers/STM32F4xx_HAL_Driver/Src/stm32f4xx_hal_gpio.c ****       {
 297              		.loc 1 221 20 is_stmt 0 view .LVU121
 298 00de 4C68     		ldr	r4, [r1, #4]
 299              	.LVL33:
 221:Drivers/STM32F4xx_HAL_Driver/Src/stm32f4xx_hal_gpio.c ****       {
 300              		.loc 1 221 9 view .LVU122
 301 00e0 022C     		cmp	r4, #2
 302 00e2 01D0     		beq	.L6
 221:Drivers/STM32F4xx_HAL_Driver/Src/stm32f4xx_hal_gpio.c ****       {
 303              		.loc 1 221 47 discriminator 1 view .LVU123
 304 00e4 122C     		cmp	r4, #18
 305 00e6 13D1     		bne	.L7
 306              	.L6:
 224:Drivers/STM32F4xx_HAL_Driver/Src/stm32f4xx_hal_gpio.c ****         /* Configure Alternate function mapped with the current IO */
 307              		.loc 1 224 9 is_stmt 1 view .LVU124
 226:Drivers/STM32F4xx_HAL_Driver/Src/stm32f4xx_hal_gpio.c ****         temp &= ~(0xFU << ((uint32_t)(position & 0x07U) * 4U)) ;
 308              		.loc 1 226 9 view .LVU125
 226:Drivers/STM32F4xx_HAL_Driver/Src/stm32f4xx_hal_gpio.c ****         temp &= ~(0xFU << ((uint32_t)(position & 0x07U) * 4U)) ;
 309              		.loc 1 226 36 is_stmt 0 view .LVU126
 310 00e8 DF08     		lsrs	r7, r3, #3
 226:Drivers/STM32F4xx_HAL_Driver/Src/stm32f4xx_hal_gpio.c ****         temp &= ~(0xFU << ((uint32_t)(position & 0x07U) * 4U)) ;
 311              		.loc 1 226 14 view .LVU127
 312 00ea 0837     		adds	r7, r7, #8
 313 00ec 50F827E0 		ldr	lr, [r0, r7, lsl #2]
 314              	.LVL34:
 227:Drivers/STM32F4xx_HAL_Driver/Src/stm32f4xx_hal_gpio.c ****         temp |= ((uint32_t)(GPIO_Init->Alternate) << (((uint32_t)position & 0x07U) * 4U));
 315              		.loc 1 227 9 is_stmt 1 view .LVU128
 227:Drivers/STM32F4xx_HAL_Driver/Src/stm32f4xx_hal_gpio.c ****         temp |= ((uint32_t)(GPIO_Init->Alternate) << (((uint32_t)position & 0x07U) * 4U));
 316              		.loc 1 227 28 is_stmt 0 view .LVU129
 317 00f0 03F00704 		and	r4, r3, #7
 227:Drivers/STM32F4xx_HAL_Driver/Src/stm32f4xx_hal_gpio.c ****         temp |= ((uint32_t)(GPIO_Init->Alternate) << (((uint32_t)position & 0x07U) * 4U));
 318              		.loc 1 227 57 view .LVU130
 319 00f4 4FEA840C 		lsl	ip, r4, #2
 227:Drivers/STM32F4xx_HAL_Driver/Src/stm32f4xx_hal_gpio.c ****         temp |= ((uint32_t)(GPIO_Init->Alternate) << (((uint32_t)position & 0x07U) * 4U));
 320              		.loc 1 227 24 view .LVU131
 321 00f8 0F24     		movs	r4, #15
 322 00fa 04FA0CF4 		lsl	r4, r4, ip
 227:Drivers/STM32F4xx_HAL_Driver/Src/stm32f4xx_hal_gpio.c ****         temp |= ((uint32_t)(GPIO_Init->Alternate) << (((uint32_t)position & 0x07U) * 4U));
 323              		.loc 1 227 14 view .LVU132
 324 00fe 2EEA040E 		bic	lr, lr, r4
 325              	.LVL35:
 228:Drivers/STM32F4xx_HAL_Driver/Src/stm32f4xx_hal_gpio.c ****         GPIOx->AFR[position >> 3U] = temp;
 326              		.loc 1 228 9 is_stmt 1 view .LVU133
 228:Drivers/STM32F4xx_HAL_Driver/Src/stm32f4xx_hal_gpio.c ****         GPIOx->AFR[position >> 3U] = temp;
 327              		.loc 1 228 38 is_stmt 0 view .LVU134
 328 0102 0C69     		ldr	r4, [r1, #16]
 228:Drivers/STM32F4xx_HAL_Driver/Src/stm32f4xx_hal_gpio.c ****         GPIOx->AFR[position >> 3U] = temp;
 329              		.loc 1 228 51 view .LVU135
 330 0104 04FA0CF4 		lsl	r4, r4, ip
 228:Drivers/STM32F4xx_HAL_Driver/Src/stm32f4xx_hal_gpio.c ****         GPIOx->AFR[position >> 3U] = temp;
 331              		.loc 1 228 14 view .LVU136
ARM GAS  C:\Users\DCONNO~1\AppData\Local\Temp\ccJteUrE.s 			page 13


 332 0108 44EA0E04 		orr	r4, r4, lr
 333              	.LVL36:
 229:Drivers/STM32F4xx_HAL_Driver/Src/stm32f4xx_hal_gpio.c ****       }
 334              		.loc 1 229 9 is_stmt 1 view .LVU137
 229:Drivers/STM32F4xx_HAL_Driver/Src/stm32f4xx_hal_gpio.c ****       }
 335              		.loc 1 229 36 is_stmt 0 view .LVU138
 336 010c 40F82740 		str	r4, [r0, r7, lsl #2]
 337              	.LVL37:
 338              	.L7:
 233:Drivers/STM32F4xx_HAL_Driver/Src/stm32f4xx_hal_gpio.c ****       temp &= ~(GPIO_MODER_MODER0 << (position * 2U));
 339              		.loc 1 233 7 is_stmt 1 view .LVU139
 233:Drivers/STM32F4xx_HAL_Driver/Src/stm32f4xx_hal_gpio.c ****       temp &= ~(GPIO_MODER_MODER0 << (position * 2U));
 340              		.loc 1 233 12 is_stmt 0 view .LVU140
 341 0110 0468     		ldr	r4, [r0]
 342              	.LVL38:
 234:Drivers/STM32F4xx_HAL_Driver/Src/stm32f4xx_hal_gpio.c ****       temp |= ((GPIO_Init->Mode & GPIO_MODE) << (position * 2U));
 343              		.loc 1 234 7 is_stmt 1 view .LVU141
 234:Drivers/STM32F4xx_HAL_Driver/Src/stm32f4xx_hal_gpio.c ****       temp |= ((GPIO_Init->Mode & GPIO_MODE) << (position * 2U));
 344              		.loc 1 234 12 is_stmt 0 view .LVU142
 345 0112 1440     		ands	r4, r4, r2
 346              	.LVL39:
 235:Drivers/STM32F4xx_HAL_Driver/Src/stm32f4xx_hal_gpio.c ****       GPIOx->MODER = temp;
 347              		.loc 1 235 7 is_stmt 1 view .LVU143
 235:Drivers/STM32F4xx_HAL_Driver/Src/stm32f4xx_hal_gpio.c ****       GPIOx->MODER = temp;
 348              		.loc 1 235 26 is_stmt 0 view .LVU144
 349 0114 4A68     		ldr	r2, [r1, #4]
 235:Drivers/STM32F4xx_HAL_Driver/Src/stm32f4xx_hal_gpio.c ****       GPIOx->MODER = temp;
 350              		.loc 1 235 33 view .LVU145
 351 0116 02F00302 		and	r2, r2, #3
 235:Drivers/STM32F4xx_HAL_Driver/Src/stm32f4xx_hal_gpio.c ****       GPIOx->MODER = temp;
 352              		.loc 1 235 46 view .LVU146
 353 011a B240     		lsls	r2, r2, r6
 235:Drivers/STM32F4xx_HAL_Driver/Src/stm32f4xx_hal_gpio.c ****       GPIOx->MODER = temp;
 354              		.loc 1 235 12 view .LVU147
 355 011c 2243     		orrs	r2, r2, r4
 356              	.LVL40:
 236:Drivers/STM32F4xx_HAL_Driver/Src/stm32f4xx_hal_gpio.c **** 
 357              		.loc 1 236 7 is_stmt 1 view .LVU148
 236:Drivers/STM32F4xx_HAL_Driver/Src/stm32f4xx_hal_gpio.c **** 
 358              		.loc 1 236 20 is_stmt 0 view .LVU149
 359 011e 0260     		str	r2, [r0]
 240:Drivers/STM32F4xx_HAL_Driver/Src/stm32f4xx_hal_gpio.c ****       {
 360              		.loc 1 240 7 is_stmt 1 view .LVU150
 240:Drivers/STM32F4xx_HAL_Driver/Src/stm32f4xx_hal_gpio.c ****       {
 361              		.loc 1 240 20 is_stmt 0 view .LVU151
 362 0120 4A68     		ldr	r2, [r1, #4]
 363              	.LVL41:
 240:Drivers/STM32F4xx_HAL_Driver/Src/stm32f4xx_hal_gpio.c ****       {
 364              		.loc 1 240 9 view .LVU152
 365 0122 12F0805F 		tst	r2, #268435456
 366 0126 A8D0     		beq	.L3
 243:Drivers/STM32F4xx_HAL_Driver/Src/stm32f4xx_hal_gpio.c **** 
 367              		.loc 1 243 9 is_stmt 1 view .LVU153
 368              	.LBB2:
 243:Drivers/STM32F4xx_HAL_Driver/Src/stm32f4xx_hal_gpio.c **** 
 369              		.loc 1 243 9 view .LVU154
 370 0128 0022     		movs	r2, #0
ARM GAS  C:\Users\DCONNO~1\AppData\Local\Temp\ccJteUrE.s 			page 14


 371 012a 0192     		str	r2, [sp, #4]
 372              	.LVL42:
 243:Drivers/STM32F4xx_HAL_Driver/Src/stm32f4xx_hal_gpio.c **** 
 373              		.loc 1 243 9 view .LVU155
 374 012c 2B4A     		ldr	r2, .L30+8
 375 012e 546C     		ldr	r4, [r2, #68]
 376 0130 44F48044 		orr	r4, r4, #16384
 377 0134 5464     		str	r4, [r2, #68]
 243:Drivers/STM32F4xx_HAL_Driver/Src/stm32f4xx_hal_gpio.c **** 
 378              		.loc 1 243 9 view .LVU156
 379 0136 526C     		ldr	r2, [r2, #68]
 380 0138 02F48042 		and	r2, r2, #16384
 381 013c 0192     		str	r2, [sp, #4]
 243:Drivers/STM32F4xx_HAL_Driver/Src/stm32f4xx_hal_gpio.c **** 
 382              		.loc 1 243 9 view .LVU157
 383 013e 019A     		ldr	r2, [sp, #4]
 384              	.LBE2:
 243:Drivers/STM32F4xx_HAL_Driver/Src/stm32f4xx_hal_gpio.c **** 
 385              		.loc 1 243 9 view .LVU158
 245:Drivers/STM32F4xx_HAL_Driver/Src/stm32f4xx_hal_gpio.c ****         temp &= ~(0x0FU << (4U * (position & 0x03U)));
 386              		.loc 1 245 9 view .LVU159
 245:Drivers/STM32F4xx_HAL_Driver/Src/stm32f4xx_hal_gpio.c ****         temp &= ~(0x0FU << (4U * (position & 0x03U)));
 387              		.loc 1 245 40 is_stmt 0 view .LVU160
 388 0140 9C08     		lsrs	r4, r3, #2
 245:Drivers/STM32F4xx_HAL_Driver/Src/stm32f4xx_hal_gpio.c ****         temp &= ~(0x0FU << (4U * (position & 0x03U)));
 389              		.loc 1 245 14 view .LVU161
 390 0142 A61C     		adds	r6, r4, #2
 391 0144 234A     		ldr	r2, .L30
 392 0146 52F82670 		ldr	r7, [r2, r6, lsl #2]
 393              	.LVL43:
 246:Drivers/STM32F4xx_HAL_Driver/Src/stm32f4xx_hal_gpio.c ****         temp |= ((uint32_t)(GPIO_GET_INDEX(GPIOx)) << (4U * (position & 0x03U)));
 394              		.loc 1 246 9 is_stmt 1 view .LVU162
 246:Drivers/STM32F4xx_HAL_Driver/Src/stm32f4xx_hal_gpio.c ****         temp |= ((uint32_t)(GPIO_GET_INDEX(GPIOx)) << (4U * (position & 0x03U)));
 395              		.loc 1 246 44 is_stmt 0 view .LVU163
 396 014a 03F00302 		and	r2, r3, #3
 246:Drivers/STM32F4xx_HAL_Driver/Src/stm32f4xx_hal_gpio.c ****         temp |= ((uint32_t)(GPIO_GET_INDEX(GPIOx)) << (4U * (position & 0x03U)));
 397              		.loc 1 246 32 view .LVU164
 398 014e 9600     		lsls	r6, r2, #2
 246:Drivers/STM32F4xx_HAL_Driver/Src/stm32f4xx_hal_gpio.c ****         temp |= ((uint32_t)(GPIO_GET_INDEX(GPIOx)) << (4U * (position & 0x03U)));
 399              		.loc 1 246 25 view .LVU165
 400 0150 0F22     		movs	r2, #15
 401 0152 B240     		lsls	r2, r2, r6
 246:Drivers/STM32F4xx_HAL_Driver/Src/stm32f4xx_hal_gpio.c ****         temp |= ((uint32_t)(GPIO_GET_INDEX(GPIOx)) << (4U * (position & 0x03U)));
 402              		.loc 1 246 14 view .LVU166
 403 0154 27EA0207 		bic	r7, r7, r2
 404              	.LVL44:
 247:Drivers/STM32F4xx_HAL_Driver/Src/stm32f4xx_hal_gpio.c ****         SYSCFG->EXTICR[position >> 2U] = temp;
 405              		.loc 1 247 9 is_stmt 1 view .LVU167
 247:Drivers/STM32F4xx_HAL_Driver/Src/stm32f4xx_hal_gpio.c ****         SYSCFG->EXTICR[position >> 2U] = temp;
 406              		.loc 1 247 18 is_stmt 0 view .LVU168
 407 0158 214A     		ldr	r2, .L30+12
 408 015a 9042     		cmp	r0, r2
 409 015c 3FF459AF 		beq	.L14
 247:Drivers/STM32F4xx_HAL_Driver/Src/stm32f4xx_hal_gpio.c ****         SYSCFG->EXTICR[position >> 2U] = temp;
 410              		.loc 1 247 29 discriminator 1 view .LVU169
 411 0160 02F58062 		add	r2, r2, #1024
 412 0164 9042     		cmp	r0, r2
ARM GAS  C:\Users\DCONNO~1\AppData\Local\Temp\ccJteUrE.s 			page 15


 413 0166 22D0     		beq	.L15
 247:Drivers/STM32F4xx_HAL_Driver/Src/stm32f4xx_hal_gpio.c ****         SYSCFG->EXTICR[position >> 2U] = temp;
 414              		.loc 1 247 29 discriminator 3 view .LVU170
 415 0168 02F58062 		add	r2, r2, #1024
 416 016c 9042     		cmp	r0, r2
 417 016e 20D0     		beq	.L16
 247:Drivers/STM32F4xx_HAL_Driver/Src/stm32f4xx_hal_gpio.c ****         SYSCFG->EXTICR[position >> 2U] = temp;
 418              		.loc 1 247 29 discriminator 5 view .LVU171
 419 0170 02F58062 		add	r2, r2, #1024
 420 0174 9042     		cmp	r0, r2
 421 0176 1ED0     		beq	.L17
 247:Drivers/STM32F4xx_HAL_Driver/Src/stm32f4xx_hal_gpio.c ****         SYSCFG->EXTICR[position >> 2U] = temp;
 422              		.loc 1 247 29 discriminator 7 view .LVU172
 423 0178 02F58062 		add	r2, r2, #1024
 424 017c 9042     		cmp	r0, r2
 425 017e 1CD0     		beq	.L18
 247:Drivers/STM32F4xx_HAL_Driver/Src/stm32f4xx_hal_gpio.c ****         SYSCFG->EXTICR[position >> 2U] = temp;
 426              		.loc 1 247 29 discriminator 9 view .LVU173
 427 0180 02F58062 		add	r2, r2, #1024
 428 0184 9042     		cmp	r0, r2
 429 0186 1AD0     		beq	.L19
 247:Drivers/STM32F4xx_HAL_Driver/Src/stm32f4xx_hal_gpio.c ****         SYSCFG->EXTICR[position >> 2U] = temp;
 430              		.loc 1 247 29 discriminator 11 view .LVU174
 431 0188 02F58062 		add	r2, r2, #1024
 432 018c 9042     		cmp	r0, r2
 433 018e 18D0     		beq	.L20
 247:Drivers/STM32F4xx_HAL_Driver/Src/stm32f4xx_hal_gpio.c ****         SYSCFG->EXTICR[position >> 2U] = temp;
 434              		.loc 1 247 29 discriminator 13 view .LVU175
 435 0190 02F58062 		add	r2, r2, #1024
 436 0194 9042     		cmp	r0, r2
 437 0196 16D0     		beq	.L21
 247:Drivers/STM32F4xx_HAL_Driver/Src/stm32f4xx_hal_gpio.c ****         SYSCFG->EXTICR[position >> 2U] = temp;
 438              		.loc 1 247 29 discriminator 15 view .LVU176
 439 0198 02F58062 		add	r2, r2, #1024
 440 019c 9042     		cmp	r0, r2
 441 019e 14D0     		beq	.L22
 247:Drivers/STM32F4xx_HAL_Driver/Src/stm32f4xx_hal_gpio.c ****         SYSCFG->EXTICR[position >> 2U] = temp;
 442              		.loc 1 247 29 discriminator 17 view .LVU177
 443 01a0 02F58062 		add	r2, r2, #1024
 444 01a4 9042     		cmp	r0, r2
 445 01a6 3FF432AF 		beq	.L29
 247:Drivers/STM32F4xx_HAL_Driver/Src/stm32f4xx_hal_gpio.c ****         SYSCFG->EXTICR[position >> 2U] = temp;
 446              		.loc 1 247 29 view .LVU178
 447 01aa 0A22     		movs	r2, #10
 448 01ac 32E7     		b	.L8
 449              	.L15:
 450 01ae 0122     		movs	r2, #1
 451              	.LVL45:
 247:Drivers/STM32F4xx_HAL_Driver/Src/stm32f4xx_hal_gpio.c ****         SYSCFG->EXTICR[position >> 2U] = temp;
 452              		.loc 1 247 29 view .LVU179
 453 01b0 30E7     		b	.L8
 454              	.LVL46:
 455              	.L16:
 247:Drivers/STM32F4xx_HAL_Driver/Src/stm32f4xx_hal_gpio.c ****         SYSCFG->EXTICR[position >> 2U] = temp;
 456              		.loc 1 247 29 view .LVU180
 457 01b2 0222     		movs	r2, #2
 458 01b4 2EE7     		b	.L8
ARM GAS  C:\Users\DCONNO~1\AppData\Local\Temp\ccJteUrE.s 			page 16


 459              	.L17:
 460 01b6 0322     		movs	r2, #3
 461 01b8 2CE7     		b	.L8
 462              	.L18:
 463 01ba 0422     		movs	r2, #4
 464 01bc 2AE7     		b	.L8
 465              	.L19:
 466 01be 0522     		movs	r2, #5
 467 01c0 28E7     		b	.L8
 468              	.L20:
 469 01c2 0622     		movs	r2, #6
 470 01c4 26E7     		b	.L8
 471              	.L21:
 472 01c6 0722     		movs	r2, #7
 473 01c8 24E7     		b	.L8
 474              	.L22:
 475 01ca 0822     		movs	r2, #8
 476 01cc 22E7     		b	.L8
 477              	.LVL47:
 478              	.L28:
 283:Drivers/STM32F4xx_HAL_Driver/Src/stm32f4xx_hal_gpio.c ****       }
 284:Drivers/STM32F4xx_HAL_Driver/Src/stm32f4xx_hal_gpio.c ****     }
 285:Drivers/STM32F4xx_HAL_Driver/Src/stm32f4xx_hal_gpio.c ****   }
 286:Drivers/STM32F4xx_HAL_Driver/Src/stm32f4xx_hal_gpio.c **** }
 479              		.loc 1 286 1 view .LVU181
 480 01ce 03B0     		add	sp, sp, #12
 481              	.LCFI2:
 482              		.cfi_def_cfa_offset 20
 483              		@ sp needed
 484 01d0 F0BD     		pop	{r4, r5, r6, r7, pc}
 485              	.LVL48:
 486              	.L27:
 487              	.LCFI3:
 488              		.cfi_def_cfa_offset 0
 489              		.cfi_restore 4
 490              		.cfi_restore 5
 491              		.cfi_restore 6
 492              		.cfi_restore 7
 493              		.cfi_restore 14
 494              		.loc 1 286 1 view .LVU182
 495 01d2 7047     		bx	lr
 496              	.L31:
 497              		.align	2
 498              	.L30:
 499 01d4 00380140 		.word	1073821696
 500 01d8 003C0140 		.word	1073822720
 501 01dc 00380240 		.word	1073887232
 502 01e0 00000240 		.word	1073872896
 503              		.cfi_endproc
 504              	.LFE130:
 506              		.section	.text.HAL_GPIO_DeInit,"ax",%progbits
 507              		.align	1
 508              		.global	HAL_GPIO_DeInit
 509              		.syntax unified
 510              		.thumb
 511              		.thumb_func
 512              		.fpu fpv4-sp-d16
ARM GAS  C:\Users\DCONNO~1\AppData\Local\Temp\ccJteUrE.s 			page 17


 514              	HAL_GPIO_DeInit:
 515              	.LVL49:
 516              	.LFB131:
 287:Drivers/STM32F4xx_HAL_Driver/Src/stm32f4xx_hal_gpio.c **** 
 288:Drivers/STM32F4xx_HAL_Driver/Src/stm32f4xx_hal_gpio.c **** /**
 289:Drivers/STM32F4xx_HAL_Driver/Src/stm32f4xx_hal_gpio.c ****   * @brief  De-initializes the GPIOx peripheral registers to their default reset values.
 290:Drivers/STM32F4xx_HAL_Driver/Src/stm32f4xx_hal_gpio.c ****   * @param  GPIOx where x can be (A..K) to select the GPIO peripheral for STM32F429X device or
 291:Drivers/STM32F4xx_HAL_Driver/Src/stm32f4xx_hal_gpio.c ****   *                      x can be (A..I) to select the GPIO peripheral for STM32F40XX and STM32F427
 292:Drivers/STM32F4xx_HAL_Driver/Src/stm32f4xx_hal_gpio.c ****   * @param  GPIO_Pin specifies the port bit to be written.
 293:Drivers/STM32F4xx_HAL_Driver/Src/stm32f4xx_hal_gpio.c ****   *          This parameter can be one of GPIO_PIN_x where x can be (0..15).
 294:Drivers/STM32F4xx_HAL_Driver/Src/stm32f4xx_hal_gpio.c ****   * @retval None
 295:Drivers/STM32F4xx_HAL_Driver/Src/stm32f4xx_hal_gpio.c ****   */
 296:Drivers/STM32F4xx_HAL_Driver/Src/stm32f4xx_hal_gpio.c **** void HAL_GPIO_DeInit(GPIO_TypeDef  *GPIOx, uint32_t GPIO_Pin)
 297:Drivers/STM32F4xx_HAL_Driver/Src/stm32f4xx_hal_gpio.c **** {
 517              		.loc 1 297 1 is_stmt 1 view -0
 518              		.cfi_startproc
 519              		@ args = 0, pretend = 0, frame = 0
 520              		@ frame_needed = 0, uses_anonymous_args = 0
 298:Drivers/STM32F4xx_HAL_Driver/Src/stm32f4xx_hal_gpio.c ****   uint32_t position;
 521              		.loc 1 298 3 view .LVU184
 299:Drivers/STM32F4xx_HAL_Driver/Src/stm32f4xx_hal_gpio.c ****   uint32_t ioposition = 0x00U;
 522              		.loc 1 299 3 view .LVU185
 300:Drivers/STM32F4xx_HAL_Driver/Src/stm32f4xx_hal_gpio.c ****   uint32_t iocurrent = 0x00U;
 523              		.loc 1 300 3 view .LVU186
 301:Drivers/STM32F4xx_HAL_Driver/Src/stm32f4xx_hal_gpio.c ****   uint32_t tmp = 0x00U;
 524              		.loc 1 301 3 view .LVU187
 302:Drivers/STM32F4xx_HAL_Driver/Src/stm32f4xx_hal_gpio.c **** 
 303:Drivers/STM32F4xx_HAL_Driver/Src/stm32f4xx_hal_gpio.c ****   /* Check the parameters */
 304:Drivers/STM32F4xx_HAL_Driver/Src/stm32f4xx_hal_gpio.c ****   assert_param(IS_GPIO_ALL_INSTANCE(GPIOx));
 525              		.loc 1 304 3 view .LVU188
 305:Drivers/STM32F4xx_HAL_Driver/Src/stm32f4xx_hal_gpio.c ****   
 306:Drivers/STM32F4xx_HAL_Driver/Src/stm32f4xx_hal_gpio.c ****   /* Configure the port pins */
 307:Drivers/STM32F4xx_HAL_Driver/Src/stm32f4xx_hal_gpio.c ****   for(position = 0U; position < GPIO_NUMBER; position++)
 526              		.loc 1 307 3 view .LVU189
 527              		.loc 1 307 16 is_stmt 0 view .LVU190
 528 0000 0023     		movs	r3, #0
 529              	.LVL50:
 530              		.loc 1 307 22 is_stmt 1 view .LVU191
 531              		.loc 1 307 3 is_stmt 0 view .LVU192
 532 0002 0F2B     		cmp	r3, #15
 533 0004 00F29B80 		bhi	.L51
 297:Drivers/STM32F4xx_HAL_Driver/Src/stm32f4xx_hal_gpio.c ****   uint32_t position;
 534              		.loc 1 297 1 view .LVU193
 535 0008 F0B5     		push	{r4, r5, r6, r7, lr}
 536              	.LCFI4:
 537              		.cfi_def_cfa_offset 20
 538              		.cfi_offset 4, -20
 539              		.cfi_offset 5, -16
 540              		.cfi_offset 6, -12
 541              		.cfi_offset 7, -8
 542              		.cfi_offset 14, -4
 543 000a 2DE0     		b	.L37
 544              	.LVL51:
 545              	.L54:
 308:Drivers/STM32F4xx_HAL_Driver/Src/stm32f4xx_hal_gpio.c ****   {
 309:Drivers/STM32F4xx_HAL_Driver/Src/stm32f4xx_hal_gpio.c ****     /* Get the IO position */
 310:Drivers/STM32F4xx_HAL_Driver/Src/stm32f4xx_hal_gpio.c ****     ioposition = 0x01U << position;
ARM GAS  C:\Users\DCONNO~1\AppData\Local\Temp\ccJteUrE.s 			page 18


 311:Drivers/STM32F4xx_HAL_Driver/Src/stm32f4xx_hal_gpio.c ****     /* Get the current IO position */
 312:Drivers/STM32F4xx_HAL_Driver/Src/stm32f4xx_hal_gpio.c ****     iocurrent = (GPIO_Pin) & ioposition;
 313:Drivers/STM32F4xx_HAL_Driver/Src/stm32f4xx_hal_gpio.c **** 
 314:Drivers/STM32F4xx_HAL_Driver/Src/stm32f4xx_hal_gpio.c ****     if(iocurrent == ioposition)
 315:Drivers/STM32F4xx_HAL_Driver/Src/stm32f4xx_hal_gpio.c ****     {
 316:Drivers/STM32F4xx_HAL_Driver/Src/stm32f4xx_hal_gpio.c ****       /*------------------------- EXTI Mode Configuration --------------------*/
 317:Drivers/STM32F4xx_HAL_Driver/Src/stm32f4xx_hal_gpio.c ****       tmp = SYSCFG->EXTICR[position >> 2U];
 318:Drivers/STM32F4xx_HAL_Driver/Src/stm32f4xx_hal_gpio.c ****       tmp &= (0x0FU << (4U * (position & 0x03U)));
 319:Drivers/STM32F4xx_HAL_Driver/Src/stm32f4xx_hal_gpio.c ****       if(tmp == ((uint32_t)(GPIO_GET_INDEX(GPIOx)) << (4U * (position & 0x03U))))
 546              		.loc 1 319 29 view .LVU194
 547 000c 0926     		movs	r6, #9
 548 000e 00E0     		b	.L35
 549              	.L38:
 550              		.loc 1 319 18 view .LVU195
 551 0010 0026     		movs	r6, #0
 552              	.L35:
 553              		.loc 1 319 52 discriminator 40 view .LVU196
 554 0012 06FA04F4 		lsl	r4, r6, r4
 555              		.loc 1 319 9 discriminator 40 view .LVU197
 556 0016 AC42     		cmp	r4, r5
 557 0018 75D0     		beq	.L52
 558              	.LVL52:
 559              	.L36:
 320:Drivers/STM32F4xx_HAL_Driver/Src/stm32f4xx_hal_gpio.c ****       {
 321:Drivers/STM32F4xx_HAL_Driver/Src/stm32f4xx_hal_gpio.c ****         /* Clear EXTI line configuration */
 322:Drivers/STM32F4xx_HAL_Driver/Src/stm32f4xx_hal_gpio.c ****         EXTI->IMR &= ~((uint32_t)iocurrent);
 323:Drivers/STM32F4xx_HAL_Driver/Src/stm32f4xx_hal_gpio.c ****         EXTI->EMR &= ~((uint32_t)iocurrent);
 324:Drivers/STM32F4xx_HAL_Driver/Src/stm32f4xx_hal_gpio.c ****         
 325:Drivers/STM32F4xx_HAL_Driver/Src/stm32f4xx_hal_gpio.c ****         /* Clear Rising Falling edge configuration */
 326:Drivers/STM32F4xx_HAL_Driver/Src/stm32f4xx_hal_gpio.c ****         EXTI->RTSR &= ~((uint32_t)iocurrent);
 327:Drivers/STM32F4xx_HAL_Driver/Src/stm32f4xx_hal_gpio.c ****         EXTI->FTSR &= ~((uint32_t)iocurrent);
 328:Drivers/STM32F4xx_HAL_Driver/Src/stm32f4xx_hal_gpio.c **** 
 329:Drivers/STM32F4xx_HAL_Driver/Src/stm32f4xx_hal_gpio.c ****         /* Configure the External Interrupt or event for the current IO */
 330:Drivers/STM32F4xx_HAL_Driver/Src/stm32f4xx_hal_gpio.c ****         tmp = 0x0FU << (4U * (position & 0x03U));
 331:Drivers/STM32F4xx_HAL_Driver/Src/stm32f4xx_hal_gpio.c ****         SYSCFG->EXTICR[position >> 2U] &= ~tmp;
 332:Drivers/STM32F4xx_HAL_Driver/Src/stm32f4xx_hal_gpio.c ****       }
 333:Drivers/STM32F4xx_HAL_Driver/Src/stm32f4xx_hal_gpio.c **** 
 334:Drivers/STM32F4xx_HAL_Driver/Src/stm32f4xx_hal_gpio.c ****       /*------------------------- GPIO Mode Configuration --------------------*/
 335:Drivers/STM32F4xx_HAL_Driver/Src/stm32f4xx_hal_gpio.c ****       /* Configure IO Direction in Input Floating Mode */
 336:Drivers/STM32F4xx_HAL_Driver/Src/stm32f4xx_hal_gpio.c ****       GPIOx->MODER &= ~(GPIO_MODER_MODER0 << (position * 2U));
 560              		.loc 1 336 7 is_stmt 1 view .LVU198
 561              		.loc 1 336 20 is_stmt 0 view .LVU199
 562 001a 0568     		ldr	r5, [r0]
 563              		.loc 1 336 56 view .LVU200
 564 001c 5C00     		lsls	r4, r3, #1
 565              		.loc 1 336 43 view .LVU201
 566 001e 0326     		movs	r6, #3
 567 0020 06FA04F4 		lsl	r4, r6, r4
 568              		.loc 1 336 20 view .LVU202
 569 0024 25EA0405 		bic	r5, r5, r4
 570 0028 0560     		str	r5, [r0]
 337:Drivers/STM32F4xx_HAL_Driver/Src/stm32f4xx_hal_gpio.c **** 
 338:Drivers/STM32F4xx_HAL_Driver/Src/stm32f4xx_hal_gpio.c ****       /* Configure the default Alternate Function in current IO */
 339:Drivers/STM32F4xx_HAL_Driver/Src/stm32f4xx_hal_gpio.c ****       GPIOx->AFR[position >> 3U] &= ~(0xFU << ((uint32_t)(position & 0x07U) * 4U)) ;
 571              		.loc 1 339 7 is_stmt 1 view .LVU203
 572              		.loc 1 339 34 is_stmt 0 view .LVU204
 573 002a 23FA06F5 		lsr	r5, r3, r6
ARM GAS  C:\Users\DCONNO~1\AppData\Local\Temp\ccJteUrE.s 			page 19


 574 002e 0835     		adds	r5, r5, #8
 575 0030 50F82560 		ldr	r6, [r0, r5, lsl #2]
 576              		.loc 1 339 48 view .LVU205
 577 0034 03F00707 		and	r7, r3, #7
 578              		.loc 1 339 77 view .LVU206
 579 0038 4FEA870C 		lsl	ip, r7, #2
 580              		.loc 1 339 44 view .LVU207
 581 003c 0F27     		movs	r7, #15
 582 003e 07FA0CF7 		lsl	r7, r7, ip
 583              		.loc 1 339 34 view .LVU208
 584 0042 26EA0706 		bic	r6, r6, r7
 585 0046 40F82560 		str	r6, [r0, r5, lsl #2]
 340:Drivers/STM32F4xx_HAL_Driver/Src/stm32f4xx_hal_gpio.c **** 
 341:Drivers/STM32F4xx_HAL_Driver/Src/stm32f4xx_hal_gpio.c ****       /* Deactivate the Pull-up and Pull-down resistor for the current IO */
 342:Drivers/STM32F4xx_HAL_Driver/Src/stm32f4xx_hal_gpio.c ****       GPIOx->PUPDR &= ~(GPIO_PUPDR_PUPDR0 << (position * 2U));
 586              		.loc 1 342 7 is_stmt 1 view .LVU209
 587              		.loc 1 342 20 is_stmt 0 view .LVU210
 588 004a C568     		ldr	r5, [r0, #12]
 589 004c 25EA0405 		bic	r5, r5, r4
 590 0050 C560     		str	r5, [r0, #12]
 343:Drivers/STM32F4xx_HAL_Driver/Src/stm32f4xx_hal_gpio.c **** 
 344:Drivers/STM32F4xx_HAL_Driver/Src/stm32f4xx_hal_gpio.c ****       /* Configure the default value IO Output Type */
 345:Drivers/STM32F4xx_HAL_Driver/Src/stm32f4xx_hal_gpio.c ****       GPIOx->OTYPER  &= ~(GPIO_OTYPER_OT_0 << position) ;
 591              		.loc 1 345 7 is_stmt 1 view .LVU211
 592              		.loc 1 345 22 is_stmt 0 view .LVU212
 593 0052 4568     		ldr	r5, [r0, #4]
 594 0054 25EA0202 		bic	r2, r5, r2
 595              	.LVL53:
 596              		.loc 1 345 22 view .LVU213
 597 0058 4260     		str	r2, [r0, #4]
 346:Drivers/STM32F4xx_HAL_Driver/Src/stm32f4xx_hal_gpio.c **** 
 347:Drivers/STM32F4xx_HAL_Driver/Src/stm32f4xx_hal_gpio.c ****       /* Configure the default value for IO Speed */
 348:Drivers/STM32F4xx_HAL_Driver/Src/stm32f4xx_hal_gpio.c ****       GPIOx->OSPEEDR &= ~(GPIO_OSPEEDER_OSPEEDR0 << (position * 2U));
 598              		.loc 1 348 7 is_stmt 1 view .LVU214
 599              		.loc 1 348 22 is_stmt 0 view .LVU215
 600 005a 8268     		ldr	r2, [r0, #8]
 601 005c 22EA0404 		bic	r4, r2, r4
 602 0060 8460     		str	r4, [r0, #8]
 603              	.L34:
 307:Drivers/STM32F4xx_HAL_Driver/Src/stm32f4xx_hal_gpio.c ****   {
 604              		.loc 1 307 46 is_stmt 1 discriminator 2 view .LVU216
 307:Drivers/STM32F4xx_HAL_Driver/Src/stm32f4xx_hal_gpio.c ****   {
 605              		.loc 1 307 54 is_stmt 0 discriminator 2 view .LVU217
 606 0062 0133     		adds	r3, r3, #1
 607              	.LVL54:
 307:Drivers/STM32F4xx_HAL_Driver/Src/stm32f4xx_hal_gpio.c ****   {
 608              		.loc 1 307 22 is_stmt 1 discriminator 2 view .LVU218
 307:Drivers/STM32F4xx_HAL_Driver/Src/stm32f4xx_hal_gpio.c ****   {
 609              		.loc 1 307 3 is_stmt 0 discriminator 2 view .LVU219
 610 0064 0F2B     		cmp	r3, #15
 611 0066 69D8     		bhi	.L53
 612              	.LVL55:
 613              	.L37:
 310:Drivers/STM32F4xx_HAL_Driver/Src/stm32f4xx_hal_gpio.c ****     /* Get the current IO position */
 614              		.loc 1 310 5 is_stmt 1 view .LVU220
 310:Drivers/STM32F4xx_HAL_Driver/Src/stm32f4xx_hal_gpio.c ****     /* Get the current IO position */
 615              		.loc 1 310 16 is_stmt 0 view .LVU221
ARM GAS  C:\Users\DCONNO~1\AppData\Local\Temp\ccJteUrE.s 			page 20


 616 0068 0122     		movs	r2, #1
 617 006a 9A40     		lsls	r2, r2, r3
 618              	.LVL56:
 312:Drivers/STM32F4xx_HAL_Driver/Src/stm32f4xx_hal_gpio.c **** 
 619              		.loc 1 312 5 is_stmt 1 view .LVU222
 312:Drivers/STM32F4xx_HAL_Driver/Src/stm32f4xx_hal_gpio.c **** 
 620              		.loc 1 312 15 is_stmt 0 view .LVU223
 621 006c 02EA0107 		and	r7, r2, r1
 622              	.LVL57:
 314:Drivers/STM32F4xx_HAL_Driver/Src/stm32f4xx_hal_gpio.c ****     {
 623              		.loc 1 314 5 is_stmt 1 view .LVU224
 314:Drivers/STM32F4xx_HAL_Driver/Src/stm32f4xx_hal_gpio.c ****     {
 624              		.loc 1 314 7 is_stmt 0 view .LVU225
 625 0070 32EA0104 		bics	r4, r2, r1
 626 0074 F5D1     		bne	.L34
 317:Drivers/STM32F4xx_HAL_Driver/Src/stm32f4xx_hal_gpio.c ****       tmp &= (0x0FU << (4U * (position & 0x03U)));
 627              		.loc 1 317 7 is_stmt 1 view .LVU226
 317:Drivers/STM32F4xx_HAL_Driver/Src/stm32f4xx_hal_gpio.c ****       tmp &= (0x0FU << (4U * (position & 0x03U)));
 628              		.loc 1 317 37 is_stmt 0 view .LVU227
 629 0076 4FEA930C 		lsr	ip, r3, #2
 317:Drivers/STM32F4xx_HAL_Driver/Src/stm32f4xx_hal_gpio.c ****       tmp &= (0x0FU << (4U * (position & 0x03U)));
 630              		.loc 1 317 11 view .LVU228
 631 007a 0CF10205 		add	r5, ip, #2
 632 007e 304C     		ldr	r4, .L55
 633 0080 54F82550 		ldr	r5, [r4, r5, lsl #2]
 634              	.LVL58:
 318:Drivers/STM32F4xx_HAL_Driver/Src/stm32f4xx_hal_gpio.c ****       if(tmp == ((uint32_t)(GPIO_GET_INDEX(GPIOx)) << (4U * (position & 0x03U))))
 635              		.loc 1 318 7 is_stmt 1 view .LVU229
 318:Drivers/STM32F4xx_HAL_Driver/Src/stm32f4xx_hal_gpio.c ****       if(tmp == ((uint32_t)(GPIO_GET_INDEX(GPIOx)) << (4U * (position & 0x03U))))
 636              		.loc 1 318 40 is_stmt 0 view .LVU230
 637 0084 03F00304 		and	r4, r3, #3
 318:Drivers/STM32F4xx_HAL_Driver/Src/stm32f4xx_hal_gpio.c ****       if(tmp == ((uint32_t)(GPIO_GET_INDEX(GPIOx)) << (4U * (position & 0x03U))))
 638              		.loc 1 318 28 view .LVU231
 639 0088 A400     		lsls	r4, r4, #2
 318:Drivers/STM32F4xx_HAL_Driver/Src/stm32f4xx_hal_gpio.c ****       if(tmp == ((uint32_t)(GPIO_GET_INDEX(GPIOx)) << (4U * (position & 0x03U))))
 640              		.loc 1 318 21 view .LVU232
 641 008a 0F26     		movs	r6, #15
 642 008c 06FA04FE 		lsl	lr, r6, r4
 318:Drivers/STM32F4xx_HAL_Driver/Src/stm32f4xx_hal_gpio.c ****       if(tmp == ((uint32_t)(GPIO_GET_INDEX(GPIOx)) << (4U * (position & 0x03U))))
 643              		.loc 1 318 11 view .LVU233
 644 0090 0EEA0505 		and	r5, lr, r5
 645              	.LVL59:
 319:Drivers/STM32F4xx_HAL_Driver/Src/stm32f4xx_hal_gpio.c ****       {
 646              		.loc 1 319 7 is_stmt 1 view .LVU234
 319:Drivers/STM32F4xx_HAL_Driver/Src/stm32f4xx_hal_gpio.c ****       {
 647              		.loc 1 319 18 is_stmt 0 view .LVU235
 648 0094 2B4E     		ldr	r6, .L55+4
 649 0096 B042     		cmp	r0, r6
 650 0098 BAD0     		beq	.L38
 319:Drivers/STM32F4xx_HAL_Driver/Src/stm32f4xx_hal_gpio.c ****       {
 651              		.loc 1 319 29 discriminator 1 view .LVU236
 652 009a 06F58066 		add	r6, r6, #1024
 653 009e B042     		cmp	r0, r6
 654 00a0 21D0     		beq	.L39
 319:Drivers/STM32F4xx_HAL_Driver/Src/stm32f4xx_hal_gpio.c ****       {
 655              		.loc 1 319 29 discriminator 3 view .LVU237
 656 00a2 06F58066 		add	r6, r6, #1024
ARM GAS  C:\Users\DCONNO~1\AppData\Local\Temp\ccJteUrE.s 			page 21


 657 00a6 B042     		cmp	r0, r6
 658 00a8 1FD0     		beq	.L40
 319:Drivers/STM32F4xx_HAL_Driver/Src/stm32f4xx_hal_gpio.c ****       {
 659              		.loc 1 319 29 discriminator 5 view .LVU238
 660 00aa 06F58066 		add	r6, r6, #1024
 661 00ae B042     		cmp	r0, r6
 662 00b0 1DD0     		beq	.L41
 319:Drivers/STM32F4xx_HAL_Driver/Src/stm32f4xx_hal_gpio.c ****       {
 663              		.loc 1 319 29 discriminator 7 view .LVU239
 664 00b2 06F58066 		add	r6, r6, #1024
 665 00b6 B042     		cmp	r0, r6
 666 00b8 1BD0     		beq	.L42
 319:Drivers/STM32F4xx_HAL_Driver/Src/stm32f4xx_hal_gpio.c ****       {
 667              		.loc 1 319 29 discriminator 9 view .LVU240
 668 00ba 06F58066 		add	r6, r6, #1024
 669 00be B042     		cmp	r0, r6
 670 00c0 19D0     		beq	.L43
 319:Drivers/STM32F4xx_HAL_Driver/Src/stm32f4xx_hal_gpio.c ****       {
 671              		.loc 1 319 29 discriminator 11 view .LVU241
 672 00c2 06F58066 		add	r6, r6, #1024
 673 00c6 B042     		cmp	r0, r6
 674 00c8 17D0     		beq	.L44
 319:Drivers/STM32F4xx_HAL_Driver/Src/stm32f4xx_hal_gpio.c ****       {
 675              		.loc 1 319 29 discriminator 13 view .LVU242
 676 00ca 06F58066 		add	r6, r6, #1024
 677 00ce B042     		cmp	r0, r6
 678 00d0 15D0     		beq	.L45
 319:Drivers/STM32F4xx_HAL_Driver/Src/stm32f4xx_hal_gpio.c ****       {
 679              		.loc 1 319 29 discriminator 15 view .LVU243
 680 00d2 06F58066 		add	r6, r6, #1024
 681 00d6 B042     		cmp	r0, r6
 682 00d8 13D0     		beq	.L46
 319:Drivers/STM32F4xx_HAL_Driver/Src/stm32f4xx_hal_gpio.c ****       {
 683              		.loc 1 319 29 discriminator 17 view .LVU244
 684 00da 06F58066 		add	r6, r6, #1024
 685 00de B042     		cmp	r0, r6
 686 00e0 94D0     		beq	.L54
 319:Drivers/STM32F4xx_HAL_Driver/Src/stm32f4xx_hal_gpio.c ****       {
 687              		.loc 1 319 29 view .LVU245
 688 00e2 0A26     		movs	r6, #10
 689 00e4 95E7     		b	.L35
 690              	.L39:
 691 00e6 0126     		movs	r6, #1
 692 00e8 93E7     		b	.L35
 693              	.L40:
 694 00ea 0226     		movs	r6, #2
 695 00ec 91E7     		b	.L35
 696              	.L41:
 697 00ee 0326     		movs	r6, #3
 698 00f0 8FE7     		b	.L35
 699              	.L42:
 700 00f2 0426     		movs	r6, #4
 701 00f4 8DE7     		b	.L35
 702              	.L43:
 703 00f6 0526     		movs	r6, #5
 704 00f8 8BE7     		b	.L35
 705              	.L44:
ARM GAS  C:\Users\DCONNO~1\AppData\Local\Temp\ccJteUrE.s 			page 22


 706 00fa 0626     		movs	r6, #6
 707 00fc 89E7     		b	.L35
 708              	.L45:
 709 00fe 0726     		movs	r6, #7
 710 0100 87E7     		b	.L35
 711              	.L46:
 712 0102 0826     		movs	r6, #8
 713 0104 85E7     		b	.L35
 714              	.L52:
 322:Drivers/STM32F4xx_HAL_Driver/Src/stm32f4xx_hal_gpio.c ****         EXTI->EMR &= ~((uint32_t)iocurrent);
 715              		.loc 1 322 9 is_stmt 1 view .LVU246
 322:Drivers/STM32F4xx_HAL_Driver/Src/stm32f4xx_hal_gpio.c ****         EXTI->EMR &= ~((uint32_t)iocurrent);
 716              		.loc 1 322 19 is_stmt 0 view .LVU247
 717 0106 104C     		ldr	r4, .L55+8
 718 0108 2568     		ldr	r5, [r4]
 719              	.LVL60:
 322:Drivers/STM32F4xx_HAL_Driver/Src/stm32f4xx_hal_gpio.c ****         EXTI->EMR &= ~((uint32_t)iocurrent);
 720              		.loc 1 322 19 view .LVU248
 721 010a 25EA0705 		bic	r5, r5, r7
 722 010e 2560     		str	r5, [r4]
 323:Drivers/STM32F4xx_HAL_Driver/Src/stm32f4xx_hal_gpio.c ****         
 723              		.loc 1 323 9 is_stmt 1 view .LVU249
 323:Drivers/STM32F4xx_HAL_Driver/Src/stm32f4xx_hal_gpio.c ****         
 724              		.loc 1 323 19 is_stmt 0 view .LVU250
 725 0110 6568     		ldr	r5, [r4, #4]
 726 0112 25EA0705 		bic	r5, r5, r7
 727 0116 6560     		str	r5, [r4, #4]
 326:Drivers/STM32F4xx_HAL_Driver/Src/stm32f4xx_hal_gpio.c ****         EXTI->FTSR &= ~((uint32_t)iocurrent);
 728              		.loc 1 326 9 is_stmt 1 view .LVU251
 326:Drivers/STM32F4xx_HAL_Driver/Src/stm32f4xx_hal_gpio.c ****         EXTI->FTSR &= ~((uint32_t)iocurrent);
 729              		.loc 1 326 20 is_stmt 0 view .LVU252
 730 0118 A568     		ldr	r5, [r4, #8]
 731 011a 25EA0705 		bic	r5, r5, r7
 732 011e A560     		str	r5, [r4, #8]
 327:Drivers/STM32F4xx_HAL_Driver/Src/stm32f4xx_hal_gpio.c **** 
 733              		.loc 1 327 9 is_stmt 1 view .LVU253
 327:Drivers/STM32F4xx_HAL_Driver/Src/stm32f4xx_hal_gpio.c **** 
 734              		.loc 1 327 20 is_stmt 0 view .LVU254
 735 0120 E568     		ldr	r5, [r4, #12]
 736 0122 25EA0707 		bic	r7, r5, r7
 737              	.LVL61:
 327:Drivers/STM32F4xx_HAL_Driver/Src/stm32f4xx_hal_gpio.c **** 
 738              		.loc 1 327 20 view .LVU255
 739 0126 E760     		str	r7, [r4, #12]
 330:Drivers/STM32F4xx_HAL_Driver/Src/stm32f4xx_hal_gpio.c ****         SYSCFG->EXTICR[position >> 2U] &= ~tmp;
 740              		.loc 1 330 9 is_stmt 1 view .LVU256
 741              	.LVL62:
 331:Drivers/STM32F4xx_HAL_Driver/Src/stm32f4xx_hal_gpio.c ****       }
 742              		.loc 1 331 9 view .LVU257
 331:Drivers/STM32F4xx_HAL_Driver/Src/stm32f4xx_hal_gpio.c ****       }
 743              		.loc 1 331 40 is_stmt 0 view .LVU258
 744 0128 054D     		ldr	r5, .L55
 745 012a 0CF10204 		add	r4, ip, #2
 746 012e 55F82460 		ldr	r6, [r5, r4, lsl #2]
 747 0132 26EA0E06 		bic	r6, r6, lr
 748 0136 45F82460 		str	r6, [r5, r4, lsl #2]
 749 013a 6EE7     		b	.L36
ARM GAS  C:\Users\DCONNO~1\AppData\Local\Temp\ccJteUrE.s 			page 23


 750              	.LVL63:
 751              	.L53:
 349:Drivers/STM32F4xx_HAL_Driver/Src/stm32f4xx_hal_gpio.c ****     }
 350:Drivers/STM32F4xx_HAL_Driver/Src/stm32f4xx_hal_gpio.c ****   }
 351:Drivers/STM32F4xx_HAL_Driver/Src/stm32f4xx_hal_gpio.c **** }
 752              		.loc 1 351 1 view .LVU259
 753 013c F0BD     		pop	{r4, r5, r6, r7, pc}
 754              	.LVL64:
 755              	.L51:
 756              	.LCFI5:
 757              		.cfi_def_cfa_offset 0
 758              		.cfi_restore 4
 759              		.cfi_restore 5
 760              		.cfi_restore 6
 761              		.cfi_restore 7
 762              		.cfi_restore 14
 763              		.loc 1 351 1 view .LVU260
 764 013e 7047     		bx	lr
 765              	.L56:
 766              		.align	2
 767              	.L55:
 768 0140 00380140 		.word	1073821696
 769 0144 00000240 		.word	1073872896
 770 0148 003C0140 		.word	1073822720
 771              		.cfi_endproc
 772              	.LFE131:
 774              		.section	.text.HAL_GPIO_ReadPin,"ax",%progbits
 775              		.align	1
 776              		.global	HAL_GPIO_ReadPin
 777              		.syntax unified
 778              		.thumb
 779              		.thumb_func
 780              		.fpu fpv4-sp-d16
 782              	HAL_GPIO_ReadPin:
 783              	.LVL65:
 784              	.LFB132:
 352:Drivers/STM32F4xx_HAL_Driver/Src/stm32f4xx_hal_gpio.c **** 
 353:Drivers/STM32F4xx_HAL_Driver/Src/stm32f4xx_hal_gpio.c **** /**
 354:Drivers/STM32F4xx_HAL_Driver/Src/stm32f4xx_hal_gpio.c ****   * @}
 355:Drivers/STM32F4xx_HAL_Driver/Src/stm32f4xx_hal_gpio.c ****   */
 356:Drivers/STM32F4xx_HAL_Driver/Src/stm32f4xx_hal_gpio.c **** 
 357:Drivers/STM32F4xx_HAL_Driver/Src/stm32f4xx_hal_gpio.c **** /** @defgroup GPIO_Exported_Functions_Group2 IO operation functions 
 358:Drivers/STM32F4xx_HAL_Driver/Src/stm32f4xx_hal_gpio.c ****   *  @brief   GPIO Read and Write
 359:Drivers/STM32F4xx_HAL_Driver/Src/stm32f4xx_hal_gpio.c ****   *
 360:Drivers/STM32F4xx_HAL_Driver/Src/stm32f4xx_hal_gpio.c **** @verbatim
 361:Drivers/STM32F4xx_HAL_Driver/Src/stm32f4xx_hal_gpio.c ****  ===============================================================================
 362:Drivers/STM32F4xx_HAL_Driver/Src/stm32f4xx_hal_gpio.c ****                        ##### IO operation functions #####
 363:Drivers/STM32F4xx_HAL_Driver/Src/stm32f4xx_hal_gpio.c ****  ===============================================================================
 364:Drivers/STM32F4xx_HAL_Driver/Src/stm32f4xx_hal_gpio.c **** 
 365:Drivers/STM32F4xx_HAL_Driver/Src/stm32f4xx_hal_gpio.c **** @endverbatim
 366:Drivers/STM32F4xx_HAL_Driver/Src/stm32f4xx_hal_gpio.c ****   * @{
 367:Drivers/STM32F4xx_HAL_Driver/Src/stm32f4xx_hal_gpio.c ****   */
 368:Drivers/STM32F4xx_HAL_Driver/Src/stm32f4xx_hal_gpio.c **** 
 369:Drivers/STM32F4xx_HAL_Driver/Src/stm32f4xx_hal_gpio.c **** /**
 370:Drivers/STM32F4xx_HAL_Driver/Src/stm32f4xx_hal_gpio.c ****   * @brief  Reads the specified input port pin.
 371:Drivers/STM32F4xx_HAL_Driver/Src/stm32f4xx_hal_gpio.c ****   * @param  GPIOx where x can be (A..K) to select the GPIO peripheral for STM32F429X device or
 372:Drivers/STM32F4xx_HAL_Driver/Src/stm32f4xx_hal_gpio.c ****   *                      x can be (A..I) to select the GPIO peripheral for STM32F40XX and STM32F427
ARM GAS  C:\Users\DCONNO~1\AppData\Local\Temp\ccJteUrE.s 			page 24


 373:Drivers/STM32F4xx_HAL_Driver/Src/stm32f4xx_hal_gpio.c ****   * @param  GPIO_Pin specifies the port bit to read.
 374:Drivers/STM32F4xx_HAL_Driver/Src/stm32f4xx_hal_gpio.c ****   *         This parameter can be GPIO_PIN_x where x can be (0..15).
 375:Drivers/STM32F4xx_HAL_Driver/Src/stm32f4xx_hal_gpio.c ****   * @retval The input port pin value.
 376:Drivers/STM32F4xx_HAL_Driver/Src/stm32f4xx_hal_gpio.c ****   */
 377:Drivers/STM32F4xx_HAL_Driver/Src/stm32f4xx_hal_gpio.c **** GPIO_PinState HAL_GPIO_ReadPin(GPIO_TypeDef* GPIOx, uint16_t GPIO_Pin)
 378:Drivers/STM32F4xx_HAL_Driver/Src/stm32f4xx_hal_gpio.c **** {
 785              		.loc 1 378 1 is_stmt 1 view -0
 786              		.cfi_startproc
 787              		@ args = 0, pretend = 0, frame = 0
 788              		@ frame_needed = 0, uses_anonymous_args = 0
 789              		@ link register save eliminated.
 379:Drivers/STM32F4xx_HAL_Driver/Src/stm32f4xx_hal_gpio.c ****   GPIO_PinState bitstatus;
 790              		.loc 1 379 3 view .LVU262
 380:Drivers/STM32F4xx_HAL_Driver/Src/stm32f4xx_hal_gpio.c **** 
 381:Drivers/STM32F4xx_HAL_Driver/Src/stm32f4xx_hal_gpio.c ****   /* Check the parameters */
 382:Drivers/STM32F4xx_HAL_Driver/Src/stm32f4xx_hal_gpio.c ****   assert_param(IS_GPIO_PIN(GPIO_Pin));
 791              		.loc 1 382 3 view .LVU263
 383:Drivers/STM32F4xx_HAL_Driver/Src/stm32f4xx_hal_gpio.c **** 
 384:Drivers/STM32F4xx_HAL_Driver/Src/stm32f4xx_hal_gpio.c ****   if((GPIOx->IDR & GPIO_Pin) != (uint32_t)GPIO_PIN_RESET)
 792              		.loc 1 384 3 view .LVU264
 793              		.loc 1 384 12 is_stmt 0 view .LVU265
 794 0000 0369     		ldr	r3, [r0, #16]
 795              		.loc 1 384 5 view .LVU266
 796 0002 1942     		tst	r1, r3
 797 0004 01D0     		beq	.L59
 385:Drivers/STM32F4xx_HAL_Driver/Src/stm32f4xx_hal_gpio.c ****   {
 386:Drivers/STM32F4xx_HAL_Driver/Src/stm32f4xx_hal_gpio.c ****     bitstatus = GPIO_PIN_SET;
 798              		.loc 1 386 15 view .LVU267
 799 0006 0120     		movs	r0, #1
 800              	.LVL66:
 801              		.loc 1 386 15 view .LVU268
 802 0008 7047     		bx	lr
 803              	.LVL67:
 804              	.L59:
 387:Drivers/STM32F4xx_HAL_Driver/Src/stm32f4xx_hal_gpio.c ****   }
 388:Drivers/STM32F4xx_HAL_Driver/Src/stm32f4xx_hal_gpio.c ****   else
 389:Drivers/STM32F4xx_HAL_Driver/Src/stm32f4xx_hal_gpio.c ****   {
 390:Drivers/STM32F4xx_HAL_Driver/Src/stm32f4xx_hal_gpio.c ****     bitstatus = GPIO_PIN_RESET;
 805              		.loc 1 390 15 view .LVU269
 806 000a 0020     		movs	r0, #0
 807              	.LVL68:
 391:Drivers/STM32F4xx_HAL_Driver/Src/stm32f4xx_hal_gpio.c ****   }
 392:Drivers/STM32F4xx_HAL_Driver/Src/stm32f4xx_hal_gpio.c ****   return bitstatus;
 808              		.loc 1 392 3 is_stmt 1 view .LVU270
 393:Drivers/STM32F4xx_HAL_Driver/Src/stm32f4xx_hal_gpio.c **** }
 809              		.loc 1 393 1 is_stmt 0 view .LVU271
 810 000c 7047     		bx	lr
 811              		.cfi_endproc
 812              	.LFE132:
 814              		.section	.text.HAL_GPIO_WritePin,"ax",%progbits
 815              		.align	1
 816              		.global	HAL_GPIO_WritePin
 817              		.syntax unified
 818              		.thumb
 819              		.thumb_func
 820              		.fpu fpv4-sp-d16
 822              	HAL_GPIO_WritePin:
ARM GAS  C:\Users\DCONNO~1\AppData\Local\Temp\ccJteUrE.s 			page 25


 823              	.LVL69:
 824              	.LFB133:
 394:Drivers/STM32F4xx_HAL_Driver/Src/stm32f4xx_hal_gpio.c **** 
 395:Drivers/STM32F4xx_HAL_Driver/Src/stm32f4xx_hal_gpio.c **** /**
 396:Drivers/STM32F4xx_HAL_Driver/Src/stm32f4xx_hal_gpio.c ****   * @brief  Sets or clears the selected data port bit.
 397:Drivers/STM32F4xx_HAL_Driver/Src/stm32f4xx_hal_gpio.c ****   *
 398:Drivers/STM32F4xx_HAL_Driver/Src/stm32f4xx_hal_gpio.c ****   * @note   This function uses GPIOx_BSRR register to allow atomic read/modify
 399:Drivers/STM32F4xx_HAL_Driver/Src/stm32f4xx_hal_gpio.c ****   *         accesses. In this way, there is no risk of an IRQ occurring between
 400:Drivers/STM32F4xx_HAL_Driver/Src/stm32f4xx_hal_gpio.c ****   *         the read and the modify access.
 401:Drivers/STM32F4xx_HAL_Driver/Src/stm32f4xx_hal_gpio.c ****   *
 402:Drivers/STM32F4xx_HAL_Driver/Src/stm32f4xx_hal_gpio.c ****   * @param  GPIOx where x can be (A..K) to select the GPIO peripheral for STM32F429X device or
 403:Drivers/STM32F4xx_HAL_Driver/Src/stm32f4xx_hal_gpio.c ****   *                      x can be (A..I) to select the GPIO peripheral for STM32F40XX and STM32F427
 404:Drivers/STM32F4xx_HAL_Driver/Src/stm32f4xx_hal_gpio.c ****   * @param  GPIO_Pin specifies the port bit to be written.
 405:Drivers/STM32F4xx_HAL_Driver/Src/stm32f4xx_hal_gpio.c ****   *          This parameter can be one of GPIO_PIN_x where x can be (0..15).
 406:Drivers/STM32F4xx_HAL_Driver/Src/stm32f4xx_hal_gpio.c ****   * @param  PinState specifies the value to be written to the selected bit.
 407:Drivers/STM32F4xx_HAL_Driver/Src/stm32f4xx_hal_gpio.c ****   *          This parameter can be one of the GPIO_PinState enum values:
 408:Drivers/STM32F4xx_HAL_Driver/Src/stm32f4xx_hal_gpio.c ****   *            @arg GPIO_PIN_RESET: to clear the port pin
 409:Drivers/STM32F4xx_HAL_Driver/Src/stm32f4xx_hal_gpio.c ****   *            @arg GPIO_PIN_SET: to set the port pin
 410:Drivers/STM32F4xx_HAL_Driver/Src/stm32f4xx_hal_gpio.c ****   * @retval None
 411:Drivers/STM32F4xx_HAL_Driver/Src/stm32f4xx_hal_gpio.c ****   */
 412:Drivers/STM32F4xx_HAL_Driver/Src/stm32f4xx_hal_gpio.c **** void HAL_GPIO_WritePin(GPIO_TypeDef* GPIOx, uint16_t GPIO_Pin, GPIO_PinState PinState)
 413:Drivers/STM32F4xx_HAL_Driver/Src/stm32f4xx_hal_gpio.c **** {
 825              		.loc 1 413 1 is_stmt 1 view -0
 826              		.cfi_startproc
 827              		@ args = 0, pretend = 0, frame = 0
 828              		@ frame_needed = 0, uses_anonymous_args = 0
 829              		@ link register save eliminated.
 414:Drivers/STM32F4xx_HAL_Driver/Src/stm32f4xx_hal_gpio.c ****   /* Check the parameters */
 415:Drivers/STM32F4xx_HAL_Driver/Src/stm32f4xx_hal_gpio.c ****   assert_param(IS_GPIO_PIN(GPIO_Pin));
 830              		.loc 1 415 3 view .LVU273
 416:Drivers/STM32F4xx_HAL_Driver/Src/stm32f4xx_hal_gpio.c ****   assert_param(IS_GPIO_PIN_ACTION(PinState));
 831              		.loc 1 416 3 view .LVU274
 417:Drivers/STM32F4xx_HAL_Driver/Src/stm32f4xx_hal_gpio.c **** 
 418:Drivers/STM32F4xx_HAL_Driver/Src/stm32f4xx_hal_gpio.c ****   if(PinState != GPIO_PIN_RESET)
 832              		.loc 1 418 3 view .LVU275
 833              		.loc 1 418 5 is_stmt 0 view .LVU276
 834 0000 0AB1     		cbz	r2, .L61
 419:Drivers/STM32F4xx_HAL_Driver/Src/stm32f4xx_hal_gpio.c ****   {
 420:Drivers/STM32F4xx_HAL_Driver/Src/stm32f4xx_hal_gpio.c ****     GPIOx->BSRR = GPIO_Pin;
 835              		.loc 1 420 5 is_stmt 1 view .LVU277
 836              		.loc 1 420 17 is_stmt 0 view .LVU278
 837 0002 8161     		str	r1, [r0, #24]
 838 0004 7047     		bx	lr
 839              	.L61:
 421:Drivers/STM32F4xx_HAL_Driver/Src/stm32f4xx_hal_gpio.c ****   }
 422:Drivers/STM32F4xx_HAL_Driver/Src/stm32f4xx_hal_gpio.c ****   else
 423:Drivers/STM32F4xx_HAL_Driver/Src/stm32f4xx_hal_gpio.c ****   {
 424:Drivers/STM32F4xx_HAL_Driver/Src/stm32f4xx_hal_gpio.c ****     GPIOx->BSRR = (uint32_t)GPIO_Pin << 16U;
 840              		.loc 1 424 5 is_stmt 1 view .LVU279
 841              		.loc 1 424 38 is_stmt 0 view .LVU280
 842 0006 0904     		lsls	r1, r1, #16
 843              	.LVL70:
 844              		.loc 1 424 17 view .LVU281
 845 0008 8161     		str	r1, [r0, #24]
 425:Drivers/STM32F4xx_HAL_Driver/Src/stm32f4xx_hal_gpio.c ****   }
 426:Drivers/STM32F4xx_HAL_Driver/Src/stm32f4xx_hal_gpio.c **** }
 846              		.loc 1 426 1 view .LVU282
ARM GAS  C:\Users\DCONNO~1\AppData\Local\Temp\ccJteUrE.s 			page 26


 847 000a 7047     		bx	lr
 848              		.cfi_endproc
 849              	.LFE133:
 851              		.section	.text.HAL_GPIO_TogglePin,"ax",%progbits
 852              		.align	1
 853              		.global	HAL_GPIO_TogglePin
 854              		.syntax unified
 855              		.thumb
 856              		.thumb_func
 857              		.fpu fpv4-sp-d16
 859              	HAL_GPIO_TogglePin:
 860              	.LVL71:
 861              	.LFB134:
 427:Drivers/STM32F4xx_HAL_Driver/Src/stm32f4xx_hal_gpio.c **** 
 428:Drivers/STM32F4xx_HAL_Driver/Src/stm32f4xx_hal_gpio.c **** /**
 429:Drivers/STM32F4xx_HAL_Driver/Src/stm32f4xx_hal_gpio.c ****   * @brief  Toggles the specified GPIO pins.
 430:Drivers/STM32F4xx_HAL_Driver/Src/stm32f4xx_hal_gpio.c ****   * @param  GPIOx Where x can be (A..K) to select the GPIO peripheral for STM32F429X device or
 431:Drivers/STM32F4xx_HAL_Driver/Src/stm32f4xx_hal_gpio.c ****   *                      x can be (A..I) to select the GPIO peripheral for STM32F40XX and STM32F427
 432:Drivers/STM32F4xx_HAL_Driver/Src/stm32f4xx_hal_gpio.c ****   * @param  GPIO_Pin Specifies the pins to be toggled.
 433:Drivers/STM32F4xx_HAL_Driver/Src/stm32f4xx_hal_gpio.c ****   * @retval None
 434:Drivers/STM32F4xx_HAL_Driver/Src/stm32f4xx_hal_gpio.c ****   */
 435:Drivers/STM32F4xx_HAL_Driver/Src/stm32f4xx_hal_gpio.c **** void HAL_GPIO_TogglePin(GPIO_TypeDef* GPIOx, uint16_t GPIO_Pin)
 436:Drivers/STM32F4xx_HAL_Driver/Src/stm32f4xx_hal_gpio.c **** {
 862              		.loc 1 436 1 is_stmt 1 view -0
 863              		.cfi_startproc
 864              		@ args = 0, pretend = 0, frame = 0
 865              		@ frame_needed = 0, uses_anonymous_args = 0
 866              		@ link register save eliminated.
 437:Drivers/STM32F4xx_HAL_Driver/Src/stm32f4xx_hal_gpio.c ****   /* Check the parameters */
 438:Drivers/STM32F4xx_HAL_Driver/Src/stm32f4xx_hal_gpio.c ****   assert_param(IS_GPIO_PIN(GPIO_Pin));
 867              		.loc 1 438 3 view .LVU284
 439:Drivers/STM32F4xx_HAL_Driver/Src/stm32f4xx_hal_gpio.c **** 
 440:Drivers/STM32F4xx_HAL_Driver/Src/stm32f4xx_hal_gpio.c ****   if ((GPIOx->ODR & GPIO_Pin) == GPIO_Pin)
 868              		.loc 1 440 3 view .LVU285
 869              		.loc 1 440 13 is_stmt 0 view .LVU286
 870 0000 4369     		ldr	r3, [r0, #20]
 871              		.loc 1 440 6 view .LVU287
 872 0002 31EA0303 		bics	r3, r1, r3
 873 0006 01D0     		beq	.L66
 441:Drivers/STM32F4xx_HAL_Driver/Src/stm32f4xx_hal_gpio.c ****   {
 442:Drivers/STM32F4xx_HAL_Driver/Src/stm32f4xx_hal_gpio.c ****     GPIOx->BSRR = (uint32_t)GPIO_Pin << GPIO_NUMBER;
 443:Drivers/STM32F4xx_HAL_Driver/Src/stm32f4xx_hal_gpio.c ****   }
 444:Drivers/STM32F4xx_HAL_Driver/Src/stm32f4xx_hal_gpio.c ****   else
 445:Drivers/STM32F4xx_HAL_Driver/Src/stm32f4xx_hal_gpio.c ****   {
 446:Drivers/STM32F4xx_HAL_Driver/Src/stm32f4xx_hal_gpio.c ****     GPIOx->BSRR = GPIO_Pin;
 874              		.loc 1 446 5 is_stmt 1 view .LVU288
 875              		.loc 1 446 17 is_stmt 0 view .LVU289
 876 0008 8161     		str	r1, [r0, #24]
 447:Drivers/STM32F4xx_HAL_Driver/Src/stm32f4xx_hal_gpio.c ****   }
 448:Drivers/STM32F4xx_HAL_Driver/Src/stm32f4xx_hal_gpio.c **** }
 877              		.loc 1 448 1 view .LVU290
 878 000a 7047     		bx	lr
 879              	.L66:
 442:Drivers/STM32F4xx_HAL_Driver/Src/stm32f4xx_hal_gpio.c ****   }
 880              		.loc 1 442 5 is_stmt 1 view .LVU291
 442:Drivers/STM32F4xx_HAL_Driver/Src/stm32f4xx_hal_gpio.c ****   }
 881              		.loc 1 442 38 is_stmt 0 view .LVU292
ARM GAS  C:\Users\DCONNO~1\AppData\Local\Temp\ccJteUrE.s 			page 27


 882 000c 0904     		lsls	r1, r1, #16
 883              	.LVL72:
 442:Drivers/STM32F4xx_HAL_Driver/Src/stm32f4xx_hal_gpio.c ****   }
 884              		.loc 1 442 17 view .LVU293
 885 000e 8161     		str	r1, [r0, #24]
 886 0010 7047     		bx	lr
 887              		.cfi_endproc
 888              	.LFE134:
 890              		.section	.text.HAL_GPIO_LockPin,"ax",%progbits
 891              		.align	1
 892              		.global	HAL_GPIO_LockPin
 893              		.syntax unified
 894              		.thumb
 895              		.thumb_func
 896              		.fpu fpv4-sp-d16
 898              	HAL_GPIO_LockPin:
 899              	.LVL73:
 900              	.LFB135:
 449:Drivers/STM32F4xx_HAL_Driver/Src/stm32f4xx_hal_gpio.c **** 
 450:Drivers/STM32F4xx_HAL_Driver/Src/stm32f4xx_hal_gpio.c **** /**
 451:Drivers/STM32F4xx_HAL_Driver/Src/stm32f4xx_hal_gpio.c ****   * @brief  Locks GPIO Pins configuration registers.
 452:Drivers/STM32F4xx_HAL_Driver/Src/stm32f4xx_hal_gpio.c ****   * @note   The locked registers are GPIOx_MODER, GPIOx_OTYPER, GPIOx_OSPEEDR,
 453:Drivers/STM32F4xx_HAL_Driver/Src/stm32f4xx_hal_gpio.c ****   *         GPIOx_PUPDR, GPIOx_AFRL and GPIOx_AFRH.
 454:Drivers/STM32F4xx_HAL_Driver/Src/stm32f4xx_hal_gpio.c ****   * @note   The configuration of the locked GPIO pins can no longer be modified
 455:Drivers/STM32F4xx_HAL_Driver/Src/stm32f4xx_hal_gpio.c ****   *         until the next reset.
 456:Drivers/STM32F4xx_HAL_Driver/Src/stm32f4xx_hal_gpio.c ****   * @param  GPIOx where x can be (A..F) to select the GPIO peripheral for STM32F4 family
 457:Drivers/STM32F4xx_HAL_Driver/Src/stm32f4xx_hal_gpio.c ****   * @param  GPIO_Pin specifies the port bit to be locked.
 458:Drivers/STM32F4xx_HAL_Driver/Src/stm32f4xx_hal_gpio.c ****   *         This parameter can be any combination of GPIO_PIN_x where x can be (0..15).
 459:Drivers/STM32F4xx_HAL_Driver/Src/stm32f4xx_hal_gpio.c ****   * @retval None
 460:Drivers/STM32F4xx_HAL_Driver/Src/stm32f4xx_hal_gpio.c ****   */
 461:Drivers/STM32F4xx_HAL_Driver/Src/stm32f4xx_hal_gpio.c **** HAL_StatusTypeDef HAL_GPIO_LockPin(GPIO_TypeDef* GPIOx, uint16_t GPIO_Pin)
 462:Drivers/STM32F4xx_HAL_Driver/Src/stm32f4xx_hal_gpio.c **** {
 901              		.loc 1 462 1 is_stmt 1 view -0
 902              		.cfi_startproc
 903              		@ args = 0, pretend = 0, frame = 8
 904              		@ frame_needed = 0, uses_anonymous_args = 0
 905              		@ link register save eliminated.
 906              		.loc 1 462 1 is_stmt 0 view .LVU295
 907 0000 82B0     		sub	sp, sp, #8
 908              	.LCFI6:
 909              		.cfi_def_cfa_offset 8
 463:Drivers/STM32F4xx_HAL_Driver/Src/stm32f4xx_hal_gpio.c ****   __IO uint32_t tmp = GPIO_LCKR_LCKK;
 910              		.loc 1 463 3 is_stmt 1 view .LVU296
 911              		.loc 1 463 17 is_stmt 0 view .LVU297
 912 0002 4FF48033 		mov	r3, #65536
 913 0006 0193     		str	r3, [sp, #4]
 464:Drivers/STM32F4xx_HAL_Driver/Src/stm32f4xx_hal_gpio.c **** 
 465:Drivers/STM32F4xx_HAL_Driver/Src/stm32f4xx_hal_gpio.c ****   /* Check the parameters */
 466:Drivers/STM32F4xx_HAL_Driver/Src/stm32f4xx_hal_gpio.c ****   assert_param(IS_GPIO_PIN(GPIO_Pin));
 914              		.loc 1 466 3 is_stmt 1 view .LVU298
 467:Drivers/STM32F4xx_HAL_Driver/Src/stm32f4xx_hal_gpio.c **** 
 468:Drivers/STM32F4xx_HAL_Driver/Src/stm32f4xx_hal_gpio.c ****   /* Apply lock key write sequence */
 469:Drivers/STM32F4xx_HAL_Driver/Src/stm32f4xx_hal_gpio.c ****   tmp |= GPIO_Pin;
 915              		.loc 1 469 3 view .LVU299
 916              		.loc 1 469 7 is_stmt 0 view .LVU300
 917 0008 019B     		ldr	r3, [sp, #4]
 918 000a 0B43     		orrs	r3, r3, r1
ARM GAS  C:\Users\DCONNO~1\AppData\Local\Temp\ccJteUrE.s 			page 28


 919 000c 0193     		str	r3, [sp, #4]
 470:Drivers/STM32F4xx_HAL_Driver/Src/stm32f4xx_hal_gpio.c ****   /* Set LCKx bit(s): LCKK='1' + LCK[15-0] */
 471:Drivers/STM32F4xx_HAL_Driver/Src/stm32f4xx_hal_gpio.c ****   GPIOx->LCKR = tmp;
 920              		.loc 1 471 3 is_stmt 1 view .LVU301
 921              		.loc 1 471 15 is_stmt 0 view .LVU302
 922 000e 019B     		ldr	r3, [sp, #4]
 923 0010 C361     		str	r3, [r0, #28]
 472:Drivers/STM32F4xx_HAL_Driver/Src/stm32f4xx_hal_gpio.c ****   /* Reset LCKx bit(s): LCKK='0' + LCK[15-0] */
 473:Drivers/STM32F4xx_HAL_Driver/Src/stm32f4xx_hal_gpio.c ****   GPIOx->LCKR = GPIO_Pin;
 924              		.loc 1 473 3 is_stmt 1 view .LVU303
 925              		.loc 1 473 15 is_stmt 0 view .LVU304
 926 0012 C161     		str	r1, [r0, #28]
 474:Drivers/STM32F4xx_HAL_Driver/Src/stm32f4xx_hal_gpio.c ****   /* Set LCKx bit(s): LCKK='1' + LCK[15-0] */
 475:Drivers/STM32F4xx_HAL_Driver/Src/stm32f4xx_hal_gpio.c ****   GPIOx->LCKR = tmp;
 927              		.loc 1 475 3 is_stmt 1 view .LVU305
 928              		.loc 1 475 15 is_stmt 0 view .LVU306
 929 0014 019B     		ldr	r3, [sp, #4]
 930 0016 C361     		str	r3, [r0, #28]
 476:Drivers/STM32F4xx_HAL_Driver/Src/stm32f4xx_hal_gpio.c ****   /* Read LCKR register. This read is mandatory to complete key lock sequence */
 477:Drivers/STM32F4xx_HAL_Driver/Src/stm32f4xx_hal_gpio.c ****   tmp = GPIOx->LCKR;
 931              		.loc 1 477 3 is_stmt 1 view .LVU307
 932              		.loc 1 477 14 is_stmt 0 view .LVU308
 933 0018 C369     		ldr	r3, [r0, #28]
 934              		.loc 1 477 7 view .LVU309
 935 001a 0193     		str	r3, [sp, #4]
 478:Drivers/STM32F4xx_HAL_Driver/Src/stm32f4xx_hal_gpio.c **** 
 479:Drivers/STM32F4xx_HAL_Driver/Src/stm32f4xx_hal_gpio.c ****   /* Read again in order to confirm lock is active */
 480:Drivers/STM32F4xx_HAL_Driver/Src/stm32f4xx_hal_gpio.c ****  if((GPIOx->LCKR & GPIO_LCKR_LCKK) != RESET)
 936              		.loc 1 480 2 is_stmt 1 view .LVU310
 937              		.loc 1 480 11 is_stmt 0 view .LVU311
 938 001c C369     		ldr	r3, [r0, #28]
 939              		.loc 1 480 4 view .LVU312
 940 001e 13F4803F 		tst	r3, #65536
 941 0022 02D0     		beq	.L69
 481:Drivers/STM32F4xx_HAL_Driver/Src/stm32f4xx_hal_gpio.c ****   {
 482:Drivers/STM32F4xx_HAL_Driver/Src/stm32f4xx_hal_gpio.c ****     return HAL_OK;
 942              		.loc 1 482 12 view .LVU313
 943 0024 0020     		movs	r0, #0
 944              	.LVL74:
 945              	.L68:
 483:Drivers/STM32F4xx_HAL_Driver/Src/stm32f4xx_hal_gpio.c ****   }
 484:Drivers/STM32F4xx_HAL_Driver/Src/stm32f4xx_hal_gpio.c ****   else
 485:Drivers/STM32F4xx_HAL_Driver/Src/stm32f4xx_hal_gpio.c ****   {
 486:Drivers/STM32F4xx_HAL_Driver/Src/stm32f4xx_hal_gpio.c ****     return HAL_ERROR;
 487:Drivers/STM32F4xx_HAL_Driver/Src/stm32f4xx_hal_gpio.c ****   }
 488:Drivers/STM32F4xx_HAL_Driver/Src/stm32f4xx_hal_gpio.c **** }
 946              		.loc 1 488 1 view .LVU314
 947 0026 02B0     		add	sp, sp, #8
 948              	.LCFI7:
 949              		.cfi_remember_state
 950              		.cfi_def_cfa_offset 0
 951              		@ sp needed
 952 0028 7047     		bx	lr
 953              	.LVL75:
 954              	.L69:
 955              	.LCFI8:
 956              		.cfi_restore_state
ARM GAS  C:\Users\DCONNO~1\AppData\Local\Temp\ccJteUrE.s 			page 29


 486:Drivers/STM32F4xx_HAL_Driver/Src/stm32f4xx_hal_gpio.c ****   }
 957              		.loc 1 486 12 view .LVU315
 958 002a 0120     		movs	r0, #1
 959              	.LVL76:
 486:Drivers/STM32F4xx_HAL_Driver/Src/stm32f4xx_hal_gpio.c ****   }
 960              		.loc 1 486 12 view .LVU316
 961 002c FBE7     		b	.L68
 962              		.cfi_endproc
 963              	.LFE135:
 965              		.section	.text.HAL_GPIO_EXTI_Callback,"ax",%progbits
 966              		.align	1
 967              		.weak	HAL_GPIO_EXTI_Callback
 968              		.syntax unified
 969              		.thumb
 970              		.thumb_func
 971              		.fpu fpv4-sp-d16
 973              	HAL_GPIO_EXTI_Callback:
 974              	.LVL77:
 975              	.LFB137:
 489:Drivers/STM32F4xx_HAL_Driver/Src/stm32f4xx_hal_gpio.c **** 
 490:Drivers/STM32F4xx_HAL_Driver/Src/stm32f4xx_hal_gpio.c **** /**
 491:Drivers/STM32F4xx_HAL_Driver/Src/stm32f4xx_hal_gpio.c ****   * @brief  This function handles EXTI interrupt request.
 492:Drivers/STM32F4xx_HAL_Driver/Src/stm32f4xx_hal_gpio.c ****   * @param  GPIO_Pin Specifies the pins connected EXTI line
 493:Drivers/STM32F4xx_HAL_Driver/Src/stm32f4xx_hal_gpio.c ****   * @retval None
 494:Drivers/STM32F4xx_HAL_Driver/Src/stm32f4xx_hal_gpio.c ****   */
 495:Drivers/STM32F4xx_HAL_Driver/Src/stm32f4xx_hal_gpio.c **** void HAL_GPIO_EXTI_IRQHandler(uint16_t GPIO_Pin)
 496:Drivers/STM32F4xx_HAL_Driver/Src/stm32f4xx_hal_gpio.c **** {
 497:Drivers/STM32F4xx_HAL_Driver/Src/stm32f4xx_hal_gpio.c ****   /* EXTI line interrupt detected */
 498:Drivers/STM32F4xx_HAL_Driver/Src/stm32f4xx_hal_gpio.c ****   if(__HAL_GPIO_EXTI_GET_IT(GPIO_Pin) != RESET)
 499:Drivers/STM32F4xx_HAL_Driver/Src/stm32f4xx_hal_gpio.c ****   {
 500:Drivers/STM32F4xx_HAL_Driver/Src/stm32f4xx_hal_gpio.c ****     __HAL_GPIO_EXTI_CLEAR_IT(GPIO_Pin);
 501:Drivers/STM32F4xx_HAL_Driver/Src/stm32f4xx_hal_gpio.c ****     HAL_GPIO_EXTI_Callback(GPIO_Pin);
 502:Drivers/STM32F4xx_HAL_Driver/Src/stm32f4xx_hal_gpio.c ****   }
 503:Drivers/STM32F4xx_HAL_Driver/Src/stm32f4xx_hal_gpio.c **** }
 504:Drivers/STM32F4xx_HAL_Driver/Src/stm32f4xx_hal_gpio.c **** 
 505:Drivers/STM32F4xx_HAL_Driver/Src/stm32f4xx_hal_gpio.c **** /**
 506:Drivers/STM32F4xx_HAL_Driver/Src/stm32f4xx_hal_gpio.c ****   * @brief  EXTI line detection callbacks.
 507:Drivers/STM32F4xx_HAL_Driver/Src/stm32f4xx_hal_gpio.c ****   * @param  GPIO_Pin Specifies the pins connected EXTI line
 508:Drivers/STM32F4xx_HAL_Driver/Src/stm32f4xx_hal_gpio.c ****   * @retval None
 509:Drivers/STM32F4xx_HAL_Driver/Src/stm32f4xx_hal_gpio.c ****   */
 510:Drivers/STM32F4xx_HAL_Driver/Src/stm32f4xx_hal_gpio.c **** __weak void HAL_GPIO_EXTI_Callback(uint16_t GPIO_Pin)
 511:Drivers/STM32F4xx_HAL_Driver/Src/stm32f4xx_hal_gpio.c **** {
 976              		.loc 1 511 1 is_stmt 1 view -0
 977              		.cfi_startproc
 978              		@ args = 0, pretend = 0, frame = 0
 979              		@ frame_needed = 0, uses_anonymous_args = 0
 980              		@ link register save eliminated.
 512:Drivers/STM32F4xx_HAL_Driver/Src/stm32f4xx_hal_gpio.c ****   /* Prevent unused argument(s) compilation warning */
 513:Drivers/STM32F4xx_HAL_Driver/Src/stm32f4xx_hal_gpio.c ****   UNUSED(GPIO_Pin);
 981              		.loc 1 513 3 view .LVU318
 514:Drivers/STM32F4xx_HAL_Driver/Src/stm32f4xx_hal_gpio.c ****   /* NOTE: This function Should not be modified, when the callback is needed,
 515:Drivers/STM32F4xx_HAL_Driver/Src/stm32f4xx_hal_gpio.c ****            the HAL_GPIO_EXTI_Callback could be implemented in the user file
 516:Drivers/STM32F4xx_HAL_Driver/Src/stm32f4xx_hal_gpio.c ****    */
 517:Drivers/STM32F4xx_HAL_Driver/Src/stm32f4xx_hal_gpio.c **** }
 982              		.loc 1 517 1 is_stmt 0 view .LVU319
 983 0000 7047     		bx	lr
 984              		.cfi_endproc
ARM GAS  C:\Users\DCONNO~1\AppData\Local\Temp\ccJteUrE.s 			page 30


 985              	.LFE137:
 987              		.section	.text.HAL_GPIO_EXTI_IRQHandler,"ax",%progbits
 988              		.align	1
 989              		.global	HAL_GPIO_EXTI_IRQHandler
 990              		.syntax unified
 991              		.thumb
 992              		.thumb_func
 993              		.fpu fpv4-sp-d16
 995              	HAL_GPIO_EXTI_IRQHandler:
 996              	.LVL78:
 997              	.LFB136:
 496:Drivers/STM32F4xx_HAL_Driver/Src/stm32f4xx_hal_gpio.c ****   /* EXTI line interrupt detected */
 998              		.loc 1 496 1 is_stmt 1 view -0
 999              		.cfi_startproc
 1000              		@ args = 0, pretend = 0, frame = 0
 1001              		@ frame_needed = 0, uses_anonymous_args = 0
 496:Drivers/STM32F4xx_HAL_Driver/Src/stm32f4xx_hal_gpio.c ****   /* EXTI line interrupt detected */
 1002              		.loc 1 496 1 is_stmt 0 view .LVU321
 1003 0000 08B5     		push	{r3, lr}
 1004              	.LCFI9:
 1005              		.cfi_def_cfa_offset 8
 1006              		.cfi_offset 3, -8
 1007              		.cfi_offset 14, -4
 498:Drivers/STM32F4xx_HAL_Driver/Src/stm32f4xx_hal_gpio.c ****   {
 1008              		.loc 1 498 3 is_stmt 1 view .LVU322
 498:Drivers/STM32F4xx_HAL_Driver/Src/stm32f4xx_hal_gpio.c ****   {
 1009              		.loc 1 498 6 is_stmt 0 view .LVU323
 1010 0002 054B     		ldr	r3, .L76
 1011 0004 5B69     		ldr	r3, [r3, #20]
 498:Drivers/STM32F4xx_HAL_Driver/Src/stm32f4xx_hal_gpio.c ****   {
 1012              		.loc 1 498 5 view .LVU324
 1013 0006 0342     		tst	r3, r0
 1014 0008 00D1     		bne	.L75
 1015              	.LVL79:
 1016              	.L72:
 503:Drivers/STM32F4xx_HAL_Driver/Src/stm32f4xx_hal_gpio.c **** 
 1017              		.loc 1 503 1 view .LVU325
 1018 000a 08BD     		pop	{r3, pc}
 1019              	.LVL80:
 1020              	.L75:
 500:Drivers/STM32F4xx_HAL_Driver/Src/stm32f4xx_hal_gpio.c ****     HAL_GPIO_EXTI_Callback(GPIO_Pin);
 1021              		.loc 1 500 5 is_stmt 1 view .LVU326
 1022 000c 024B     		ldr	r3, .L76
 1023 000e 5861     		str	r0, [r3, #20]
 501:Drivers/STM32F4xx_HAL_Driver/Src/stm32f4xx_hal_gpio.c ****   }
 1024              		.loc 1 501 5 view .LVU327
 1025 0010 FFF7FEFF 		bl	HAL_GPIO_EXTI_Callback
 1026              	.LVL81:
 503:Drivers/STM32F4xx_HAL_Driver/Src/stm32f4xx_hal_gpio.c **** 
 1027              		.loc 1 503 1 is_stmt 0 view .LVU328
 1028 0014 F9E7     		b	.L72
 1029              	.L77:
 1030 0016 00BF     		.align	2
 1031              	.L76:
 1032 0018 003C0140 		.word	1073822720
 1033              		.cfi_endproc
 1034              	.LFE136:
ARM GAS  C:\Users\DCONNO~1\AppData\Local\Temp\ccJteUrE.s 			page 31


 1036              		.text
 1037              	.Letext0:
 1038              		.file 2 "c:\\program files (x86)\\gnu arm embedded toolchain\\9 2020-q2-update\\arm-none-eabi\\inc
 1039              		.file 3 "c:\\program files (x86)\\gnu arm embedded toolchain\\9 2020-q2-update\\arm-none-eabi\\inc
 1040              		.file 4 "Drivers/CMSIS/Include/core_cm4.h"
 1041              		.file 5 "Drivers/CMSIS/Device/ST/STM32F4xx/Include/system_stm32f4xx.h"
 1042              		.file 6 "Drivers/CMSIS/Device/ST/STM32F4xx/Include/stm32f427xx.h"
 1043              		.file 7 "Drivers/CMSIS/Device/ST/STM32F4xx/Include/stm32f4xx.h"
 1044              		.file 8 "Drivers/STM32F4xx_HAL_Driver/Inc/stm32f4xx_hal_def.h"
 1045              		.file 9 "Drivers/STM32F4xx_HAL_Driver/Inc/stm32f4xx_hal_gpio.h"
 1046              		.file 10 "Drivers/STM32F4xx_HAL_Driver/Inc/stm32f4xx_hal.h"
ARM GAS  C:\Users\DCONNO~1\AppData\Local\Temp\ccJteUrE.s 			page 32

